---
triple:          'arm64-apple-darwin'
binary-path:     search_main
relocations:
  - { offset: 0x3B, size: 0x8, addend: 0x0, symName: _.str, symObjAddr: 0x32860, symBinAddr: 0x1000355E0, symSize: 0x0 }
  - { offset: 0x6B, size: 0x8, addend: 0x0, symName: _.str.1, symObjAddr: 0x48E80, symBinAddr: 0x10003D520, symSize: 0x0 }
  - { offset: 0x88, size: 0x8, addend: 0x0, symName: _.str.2, symObjAddr: 0x48EE0, symBinAddr: 0x10003D580, symSize: 0x0 }
  - { offset: 0xA5, size: 0x8, addend: 0x0, symName: _.str.3, symObjAddr: 0x48F00, symBinAddr: 0x10003D5A0, symSize: 0x0 }
  - { offset: 0xC2, size: 0x8, addend: 0x0, symName: _.str.4, symObjAddr: 0x48F40, symBinAddr: 0x10003D5E0, symSize: 0x0 }
  - { offset: 0xDF, size: 0x8, addend: 0x0, symName: _.str.5, symObjAddr: 0x48F60, symBinAddr: 0x10003D600, symSize: 0x0 }
  - { offset: 0xFC, size: 0x8, addend: 0x0, symName: _.str.6, symObjAddr: 0x48FC0, symBinAddr: 0x10003D660, symSize: 0x0 }
  - { offset: 0x119, size: 0x8, addend: 0x0, symName: _.str.7, symObjAddr: 0x48FE0, symBinAddr: 0x10003D680, symSize: 0x0 }
  - { offset: 0x136, size: 0x8, addend: 0x0, symName: _.str.8, symObjAddr: 0x49000, symBinAddr: 0x10003D6A0, symSize: 0x0 }
  - { offset: 0x153, size: 0x8, addend: 0x0, symName: _.str.9, symObjAddr: 0x49040, symBinAddr: 0x10003D6E0, symSize: 0x0 }
  - { offset: 0x17E, size: 0x8, addend: 0x0, symName: __ZNSt3__119piecewise_constructE, symObjAddr: 0x35900, symBinAddr: 0x100038680, symSize: 0x0 }
  - { offset: 0x12906, size: 0x8, addend: 0x0, symName: __ZNSt3__124__put_character_sequenceB8ne180100IcNS_11char_traitsIcEEEERNS_13basic_ostreamIT_T0_EES7_PKS4_m, symObjAddr: 0x2F558, symBinAddr: 0x1000318EC, symSize: 0xE78 }
  - { offset: 0x14138, size: 0x8, addend: 0x0, symName: __ZNSt3__1rsB8ne180100IcNS_11char_traitsIcEENS_9allocatorIcEEEERNS_13basic_istreamIT_T0_EES9_RNS_12basic_stringIS6_S7_T1_EE, symObjAddr: 0x1514, symBinAddr: 0x1000038A8, symSize: 0x16B0 }
  - { offset: 0x14211, size: 0x8, addend: 0x0, symName: __ZNSt3__1eqB8ne180100IcNS_11char_traitsIcEENS_9allocatorIcEEEEbRKNS_12basic_stringIT_T0_T1_EEPKS6_, symObjAddr: 0x2D8C, symBinAddr: 0x100005120, symSize: 0x210 }
  - { offset: 0x14AE1, size: 0x8, addend: 0x0, symName: __ZNSt3__17getlineB8ne180100IcNS_11char_traitsIcEENS_9allocatorIcEEEERNS_13basic_istreamIT_T0_EES9_RNS_12basic_stringIS6_S7_T1_EE, symObjAddr: 0x46DC, symBinAddr: 0x100006A70, symSize: 0x2D0 }
  - { offset: 0x14B39, size: 0x8, addend: 0x0, symName: __ZNSt3__1neB8ne180100ERKNS_21__tree_const_iteratorINS_12basic_stringIcNS_11char_traitsIcEENS_9allocatorIcEEEEPNS_11__tree_nodeIS6_PvEElEESD_, symObjAddr: 0x4F0C, symBinAddr: 0x1000072A0, symSize: 0xA0 }
  - { offset: 0x14B81, size: 0x8, addend: 0x0, symName: __ZNSt3__1lsB8ne180100INS_11char_traitsIcEEEERNS_13basic_ostreamIcT_EES6_PKc, symObjAddr: 0x9774, symBinAddr: 0x10000BB08, symSize: 0xB0 }
  - { offset: 0x14BC7, size: 0x8, addend: 0x0, symName: __ZNSt3__14endlB8ne180100IcNS_11char_traitsIcEEEERNS_13basic_ostreamIT_T0_EES7_, symObjAddr: 0x9950, symBinAddr: 0x10000BCE4, symSize: 0x38C }
  - { offset: 0x14C07, size: 0x8, addend: 0x0, symName: __ZNSt3__1lsB8ne180100IcNS_11char_traitsIcEENS_9allocatorIcEEEERNS_13basic_ostreamIT_T0_EES9_RKNS_12basic_stringIS6_S7_T1_EE, symObjAddr: 0x9EFC, symBinAddr: 0x10000C290, symSize: 0x104 }
  - { offset: 0x14C5F, size: 0x8, addend: 0x0, symName: __ZNSt3__118__constexpr_strlenB8ne180100EPKc, symObjAddr: 0xA5B8, symBinAddr: 0x10000C94C, symSize: 0x24 }
  - { offset: 0x14C8B, size: 0x8, addend: 0x0, symName: __ZNSt3__119__libcpp_deallocateB8ne180100EPvmm, symObjAddr: 0xC564, symBinAddr: 0x10000E8F8, symSize: 0x68 }
  - { offset: 0x14CF0, size: 0x8, addend: 0x0, symName: __ZNSt3__124__is_overaligned_for_newB8ne180100Em, symObjAddr: 0xC5CC, symBinAddr: 0x10000E960, symSize: 0x24 }
  - { offset: 0x14D1E, size: 0x8, addend: 0x0, symName: __ZNSt3__127__do_deallocate_handle_sizeB8ne180100IJSt11align_val_tEEEvPvmDpT_, symObjAddr: 0xC5F0, symBinAddr: 0x10000E984, symSize: 0x38 }
  - { offset: 0x14D71, size: 0x8, addend: 0x0, symName: __ZNSt3__127__do_deallocate_handle_sizeB8ne180100IJEEEvPvmDpT_, symObjAddr: 0xC628, symBinAddr: 0x10000E9BC, symSize: 0x30 }
  - { offset: 0x14DAF, size: 0x8, addend: 0x0, symName: __ZNSt3__124__libcpp_operator_deleteB8ne180100IJPvSt11align_val_tEEEvDpT_, symObjAddr: 0xC658, symBinAddr: 0x10000E9EC, symSize: 0x34 }
  - { offset: 0x14DF8, size: 0x8, addend: 0x0, symName: __ZNSt3__124__libcpp_operator_deleteB8ne180100IJPvEEEvDpT_, symObjAddr: 0xC68C, symBinAddr: 0x10000EA20, symSize: 0x24 }
  - { offset: 0x14E2D, size: 0x8, addend: 0x0, symName: __ZNSt3__1eqB8ne180100IcNS_11char_traitsIcEEEEbNS_17basic_string_viewIT_T0_EENS_13type_identityIS6_E4typeE, symObjAddr: 0xC918, symBinAddr: 0x10000ECAC, symSize: 0x260 }
  - { offset: 0x14E84, size: 0x8, addend: 0x0, symName: __ZNSt3__13minB8ne180100ImEERKT_S3_S3_, symObjAddr: 0xD258, symBinAddr: 0x10000F5EC, symSize: 0xDC }
  - { offset: 0x14EC7, size: 0x8, addend: 0x0, symName: __ZNSt3__13minB8ne180100ImNS_6__lessIvvEEEERKT_S5_S5_T0_, symObjAddr: 0xD40C, symBinAddr: 0x10000F7A0, symSize: 0x270 }
  - { offset: 0x14F6C, size: 0x8, addend: 0x0, symName: __ZNSt3__112__to_addressB8ne180100IKcEEPT_S3_, symObjAddr: 0xD828, symBinAddr: 0x10000FBBC, symSize: 0x14 }
  - { offset: 0x14FD4, size: 0x8, addend: 0x0, symName: __ZNSt3__128__char_traits_length_checkedB8ne180100INS_11char_traitsIcEEEEmPKNT_9char_typeE, symObjAddr: 0xDE14, symBinAddr: 0x1000101A8, symSize: 0x24 }
  - { offset: 0x1503E, size: 0x8, addend: 0x0, symName: __ZNSt3__112__destroy_atB8ne180100INS_12basic_stringIcNS_11char_traitsIcEENS_9allocatorIcEEEETnNS_9enable_ifIXntsr8is_arrayIT_EE5valueEiE4typeELi0EEEvPS8_, symObjAddr: 0xFCEC, symBinAddr: 0x100012080, symSize: 0x5C }
  - { offset: 0x1525F, size: 0x8, addend: 0x0, symName: __ZNSt3__19use_facetB8ne180100INS_5ctypeIcEEEERKT_RKNS_6localeE, symObjAddr: 0x11A0C, symBinAddr: 0x100013DA0, symSize: 0x164 }
  - { offset: 0x15829, size: 0x8, addend: 0x0, symName: __ZNSt3__1ltB8ne180100ENS_15strong_orderingENS_20_CmpUnspecifiedParamE, symObjAddr: 0x16020, symBinAddr: 0x1000183B4, symSize: 0x28 }
  - { offset: 0x1585F, size: 0x8, addend: 0x0, symName: __ZNSt3__1ssB8ne180100IcNS_11char_traitsIcEENS_9allocatorIcEEEEDaRKNS_12basic_stringIT_T0_T1_EESB_, symObjAddr: 0x16048, symBinAddr: 0x1000183DC, symSize: 0xAC }
  - { offset: 0x158D3, size: 0x8, addend: 0x0, symName: __ZNSt3__1ssB8ne180100IcNS_11char_traitsIcEEEEDaNS_17basic_string_viewIT_T0_EENS_13type_identityIS6_E4typeE, symObjAddr: 0x16154, symBinAddr: 0x1000184E8, symSize: 0x1F4 }
  - { offset: 0x15945, size: 0x8, addend: 0x0, symName: __ZNSt3__117__libcpp_allocateB8ne180100Emm, symObjAddr: 0x168C4, symBinAddr: 0x100018C58, symSize: 0x68 }
  - { offset: 0x1599F, size: 0x8, addend: 0x0, symName: __ZNSt3__121__libcpp_operator_newB8ne180100IJmSt11align_val_tEEEPvDpT_, symObjAddr: 0x1692C, symBinAddr: 0x100018CC0, symSize: 0x70 }
  - { offset: 0x159EC, size: 0x8, addend: 0x0, symName: __ZNSt3__121__libcpp_operator_newB8ne180100IJmEEEPvDpT_, symObjAddr: 0x1699C, symBinAddr: 0x100018D30, symSize: 0x24 }
  - { offset: 0x15A25, size: 0x8, addend: 0x0, symName: __ZNSt3__114__construct_atB8ne180100INS_12basic_stringIcNS_11char_traitsIcEENS_9allocatorIcEEEEJRKS6_EPS6_EEPT_SB_DpOT0_, symObjAddr: 0x170E4, symBinAddr: 0x100019478, symSize: 0x74 }
  - { offset: 0x15A9D, size: 0x8, addend: 0x0, symName: __ZNSt3__112construct_atB8ne180100INS_12basic_stringIcNS_11char_traitsIcEENS_9allocatorIcEEEEJRKS6_EPS6_EEPT_SB_DpOT0_, symObjAddr: 0x17158, symBinAddr: 0x1000194EC, symSize: 0xE0 }
  - { offset: 0x15B0D, size: 0x8, addend: 0x0, symName: __ZNSt3__127__tree_balance_after_insertB8ne180100IPNS_16__tree_node_baseIPvEEEEvT_S5_, symObjAddr: 0x17540, symBinAddr: 0x1000198D4, symSize: 0x145C }
  - { offset: 0x15B81, size: 0x8, addend: 0x0, symName: __ZNSt3__120__tree_is_left_childB8ne180100IPNS_16__tree_node_baseIPvEEEEbT_, symObjAddr: 0x18B54, symBinAddr: 0x10001AEE8, symSize: 0x1A4 }
  - { offset: 0x15BB6, size: 0x8, addend: 0x0, symName: __ZNSt3__118__tree_left_rotateB8ne180100IPNS_16__tree_node_baseIPvEEEEvT_, symObjAddr: 0x18CF8, symBinAddr: 0x10001B08C, symSize: 0x960 }
  - { offset: 0x15BF5, size: 0x8, addend: 0x0, symName: __ZNSt3__119__tree_right_rotateB8ne180100IPNS_16__tree_node_baseIPvEEEEvT_, symObjAddr: 0x19658, symBinAddr: 0x10001B9EC, symSize: 0x980 }
  - { offset: 0x15C37, size: 0x8, addend: 0x0, symName: __ZNSt3__17getlineB8ne180100IcNS_11char_traitsIcEENS_9allocatorIcEEEERNS_13basic_istreamIT_T0_EES9_RNS_12basic_stringIS6_S7_T1_EES6_, symObjAddr: 0x1AF38, symBinAddr: 0x10001D2CC, symSize: 0xD58 }
  - { offset: 0x15D08, size: 0x8, addend: 0x0, symName: __ZNSt3__1eqB8ne180100ERKNS_21__tree_const_iteratorINS_12basic_stringIcNS_11char_traitsIcEENS_9allocatorIcEEEEPNS_11__tree_nodeIS6_PvEElEESD_, symObjAddr: 0x1D188, symBinAddr: 0x10001F51C, symSize: 0x100 }
  - { offset: 0x15D45, size: 0x8, addend: 0x0, symName: __ZNSt3__116__tree_next_iterB8ne180100IPNS_15__tree_end_nodeIPNS_16__tree_node_baseIPvEEEES5_EET_T0_, symObjAddr: 0x1D288, symBinAddr: 0x10001F61C, symSize: 0x304 }
  - { offset: 0x15D83, size: 0x8, addend: 0x0, symName: __ZNSt3__110__tree_minB8ne180100IPNS_16__tree_node_baseIPvEEEET_S5_, symObjAddr: 0x1D58C, symBinAddr: 0x10001F920, symSize: 0x1EC }
  - { offset: 0x15DEF, size: 0x8, addend: 0x0, symName: __ZNSt3__116forward_as_tupleB8ne180100IJRKNS_12basic_stringIcNS_11char_traitsIcEENS_9allocatorIcEEEEEEENS_5tupleIJDpOT_EEESC_, symObjAddr: 0x1DE00, symBinAddr: 0x100020194, symSize: 0x1EC }
  - { offset: 0x15E29, size: 0x8, addend: 0x0, symName: __ZNSt3__116forward_as_tupleB8ne180100IJEEENS_5tupleIJDpOT_EEES4_, symObjAddr: 0x1DFEC, symBinAddr: 0x100020380, symSize: 0x4 }
  - { offset: 0x15E4D, size: 0x8, addend: 0x0, symName: __ZNSt3__17launderB8ne180100IKNS_4pairIKNS_12basic_stringIcNS_11char_traitsIcEENS_9allocatorIcEEEENS_3setIS7_NS_4lessIS7_EENS5_IS7_EEEEEEEEPT_SH_, symObjAddr: 0x2078C, symBinAddr: 0x100022B20, symSize: 0x2C }
  - { offset: 0x15E84, size: 0x8, addend: 0x0, symName: __ZNSt3__19__launderB8ne180100IKNS_4pairIKNS_12basic_stringIcNS_11char_traitsIcEENS_9allocatorIcEEEENS_3setIS7_NS_4lessIS7_EENS5_IS7_EEEEEEEEPT_SH_, symObjAddr: 0x207B8, symBinAddr: 0x100022B4C, symSize: 0x14 }
  - { offset: 0x15ED9, size: 0x8, addend: 0x0, symName: __ZNSt3__114__construct_atB8ne180100INS_4pairIKNS_12basic_stringIcNS_11char_traitsIcEENS_9allocatorIcEEEENS_3setIS7_NS_4lessIS7_EENS5_IS7_EEEEEEJRKNS_21piecewise_construct_tENS_5tupleIJRS8_EEENSI_IJEEEEPSE_EEPT_SO_DpOT0_, symObjAddr: 0x21728, symBinAddr: 0x100023ABC, symSize: 0xCC }
  - { offset: 0x15F77, size: 0x8, addend: 0x0, symName: __ZNSt3__112construct_atB8ne180100INS_4pairIKNS_12basic_stringIcNS_11char_traitsIcEENS_9allocatorIcEEEENS_3setIS7_NS_4lessIS7_EENS5_IS7_EEEEEEJRKNS_21piecewise_construct_tENS_5tupleIJRS8_EEENSI_IJEEEEPSE_EEPT_SO_DpOT0_, symObjAddr: 0x217F4, symBinAddr: 0x100023B88, symSize: 0xC0 }
  - { offset: 0x16018, size: 0x8, addend: 0x0, symName: __ZNSt3__13getB8ne180100ILm0EJRKNS_12basic_stringIcNS_11char_traitsIcEENS_9allocatorIcEEEEEEERNS_13tuple_elementIXT_ENS_5tupleIJDpT0_EEEE4typeERSD_, symObjAddr: 0x21C44, symBinAddr: 0x100023FD8, symSize: 0xB8 }
  - { offset: 0x1605B, size: 0x8, addend: 0x0, symName: __ZNSt3__112__destroy_atB8ne180100INS_4pairIKNS_12basic_stringIcNS_11char_traitsIcEENS_9allocatorIcEEEENS_3setIS7_NS_4lessIS7_EENS5_IS7_EEEEEETnNS_9enable_ifIXntsr8is_arrayIT_EE5valueEiE4typeELi0EEEvPSG_, symObjAddr: 0x22A2C, symBinAddr: 0x100024DC0, symSize: 0x5C }
  - { offset: 0x160E9, size: 0x8, addend: 0x0, symName: __ZNSt3__17launderB8ne180100INS_4pairIKNS_12basic_stringIcNS_11char_traitsIcEENS_9allocatorIcEEEENS_3setIS7_NS_4lessIS7_EENS5_IS7_EEEEEEEEPT_SG_, symObjAddr: 0x23280, symBinAddr: 0x100025614, symSize: 0x2C }
  - { offset: 0x16120, size: 0x8, addend: 0x0, symName: __ZNSt3__19__launderB8ne180100INS_4pairIKNS_12basic_stringIcNS_11char_traitsIcEENS_9allocatorIcEEEENS_3setIS7_NS_4lessIS7_EENS5_IS7_EEEEEEEEPT_SG_, symObjAddr: 0x232AC, symBinAddr: 0x100025640, symSize: 0x1C }
  - { offset: 0x16157, size: 0x8, addend: 0x0, symName: __ZNSt3__120__throw_out_of_rangeB8ne180100EPKc, symObjAddr: 0x232C8, symBinAddr: 0x10002565C, symSize: 0xA4 }
  - { offset: 0x1617F, size: 0x8, addend: 0x0, symName: __ZNSt3__111__tree_leafB8ne180100IPNS_16__tree_node_baseIPvEEEET_S5_, symObjAddr: 0x266B4, symBinAddr: 0x100028A48, symSize: 0x374 }
  - { offset: 0x161B4, size: 0x8, addend: 0x0, symName: __ZNSt3__1neB8ne180100ERKNS_15__tree_iteratorINS_12basic_stringIcNS_11char_traitsIcEENS_9allocatorIcEEEEPNS_11__tree_nodeIS6_PvEElEESD_, symObjAddr: 0x28614, symBinAddr: 0x10002A9A8, symSize: 0xA0 }
  - { offset: 0x161F1, size: 0x8, addend: 0x0, symName: __ZNSt3__1eqB8ne180100ERKNS_15__tree_iteratorINS_12basic_stringIcNS_11char_traitsIcEENS_9allocatorIcEEEEPNS_11__tree_nodeIS6_PvEElEESD_, symObjAddr: 0x28794, symBinAddr: 0x10002AB28, symSize: 0xF8 }
  - { offset: 0x1622E, size: 0x8, addend: 0x0, symName: __ZNSt3__113__tree_removeB8ne180100IPNS_16__tree_node_baseIPvEEEEvT_S5_, symObjAddr: 0x29534, symBinAddr: 0x10002B8C8, symSize: 0x4E78 }
  - { offset: 0x162AC, size: 0x8, addend: 0x0, symName: __ZNSt3__111__tree_nextB8ne180100IPNS_16__tree_node_baseIPvEEEET_S5_, symObjAddr: 0x2E3AC, symBinAddr: 0x100030740, symSize: 0x250 }
  - { offset: 0x162E1, size: 0x8, addend: 0x0, symName: __ZNSt3__116__pad_and_outputB8ne180100IcNS_11char_traitsIcEEEENS_19ostreambuf_iteratorIT_T0_EES6_PKS4_S8_S8_RNS_8ios_baseES4_, symObjAddr: 0x304C0, symBinAddr: 0x100032854, symSize: 0x8A0 }
  - { offset: 0x163BB, size: 0x8, addend: 0x0, symName: __ZNSt3__112__to_addressB8ne180100IcEEPT_S2_, symObjAddr: 0x317AC, symBinAddr: 0x100033B40, symSize: 0x14 }
  - { offset: 0x17538, size: 0x8, addend: 0x0, symName: __ZSt28__throw_bad_array_new_lengthB8ne180100v, symObjAddr: 0x16850, symBinAddr: 0x100018BE4, symSize: 0x74 }
  - { offset: 0x17567, size: 0x8, addend: 0x0, symName: _.str.34, symObjAddr: 0x49080, symBinAddr: 0x10003D720, symSize: 0x0 }
  - { offset: 0x189A5, size: 0x8, addend: 0x0, symName: __Z10cleanTokenRKNSt3__112basic_stringIcNS_11char_traitsIcEENS_9allocatorIcEEEE, symObjAddr: 0x8, symBinAddr: 0x10000239C, symSize: 0x6D4 }
  - { offset: 0x18A66, size: 0x8, addend: 0x0, symName: __ZNSt3__112basic_stringIcNS_11char_traitsIcEENS_9allocatorIcEEEC1B8ne180100ILi0EEEPKc, symObjAddr: 0x6DC, symBinAddr: 0x100002A70, symSize: 0x6C }
  - { offset: 0x18AA5, size: 0x8, addend: 0x0, symName: __ZNKSt3__112basic_stringIcNS_11char_traitsIcEENS_9allocatorIcEEE6lengthB8ne180100Ev, symObjAddr: 0x748, symBinAddr: 0x100002ADC, symSize: 0x64 }
  - { offset: 0x18ACA, size: 0x8, addend: 0x0, symName: __Z7isalphai, symObjAddr: 0x7AC, symBinAddr: 0x100002B40, symSize: 0x30 }
  - { offset: 0x18AF6, size: 0x8, addend: 0x0, symName: __Z7ispuncti, symObjAddr: 0x7DC, symBinAddr: 0x100002B70, symSize: 0x30 }
  - { offset: 0x18B24, size: 0x8, addend: 0x0, symName: __Z7toloweri, symObjAddr: 0x80C, symBinAddr: 0x100002BA0, symSize: 0x24 }
  - { offset: 0x18B53, size: 0x8, addend: 0x0, symName: __ZNSt3__112basic_stringIcNS_11char_traitsIcEENS_9allocatorIcEEEpLB8ne180100Ec, symObjAddr: 0x830, symBinAddr: 0x100002BC4, symSize: 0xA4 }
  - { offset: 0x18B87, size: 0x8, addend: 0x0, symName: __Z12gatherTokensRKNSt3__112basic_stringIcNS_11char_traitsIcEENS_9allocatorIcEEEE, symObjAddr: 0x8D4, symBinAddr: 0x100002C68, symSize: 0x7F4 }
  - { offset: 0x18BFD, size: 0x8, addend: 0x0, symName: __ZNSt3__13setINS_12basic_stringIcNS_11char_traitsIcEENS_9allocatorIcEEEENS_4lessIS6_EENS4_IS6_EEEC1B8ne180100Ev, symObjAddr: 0x10C8, symBinAddr: 0x10000345C, symSize: 0x64 }
  - { offset: 0x18D35, size: 0x8, addend: 0x0, symName: __ZNSt3__119basic_istringstreamIcNS_11char_traitsIcEENS_9allocatorIcEEEC1B8ne180100ERKNS_12basic_stringIcS2_S4_EEj, symObjAddr: 0x112C, symBinAddr: 0x1000034C0, symSize: 0x37C }
  - { offset: 0x18D7D, size: 0x8, addend: 0x0, symName: __ZNSt3__112basic_stringIcNS_11char_traitsIcEENS_9allocatorIcEEEC1B8ne180100Ev, symObjAddr: 0x14A8, symBinAddr: 0x10000383C, symSize: 0x6C }
  - { offset: 0x18DA7, size: 0x8, addend: 0x0, symName: __ZNKSt3__19basic_iosIcNS_11char_traitsIcEEEcvbB8ne180100Ev, symObjAddr: 0x2BC4, symBinAddr: 0x100004F58, symSize: 0xEC }
  - { offset: 0x18DCD, size: 0x8, addend: 0x0, symName: __ZNSt3__112basic_stringIcNS_11char_traitsIcEENS_9allocatorIcEEEaSB8ne180100EOS5_, symObjAddr: 0x2CB0, symBinAddr: 0x100005044, symSize: 0xDC }
  - { offset: 0x18E02, size: 0x8, addend: 0x0, symName: __ZNSt3__13setINS_12basic_stringIcNS_11char_traitsIcEENS_9allocatorIcEEEENS_4lessIS6_EENS4_IS6_EEE6insertB8ne180100ERKS6_, symObjAddr: 0x2F9C, symBinAddr: 0x100005330, symSize: 0x2C0 }
  - { offset: 0x18E3F, size: 0x8, addend: 0x0, symName: __ZNSt3__119basic_istringstreamIcNS_11char_traitsIcEENS_9allocatorIcEEED1Ev, symObjAddr: 0x325C, symBinAddr: 0x1000055F0, symSize: 0x78 }
  - { offset: 0x18E6C, size: 0x8, addend: 0x0, symName: __ZNSt3__13setINS_12basic_stringIcNS_11char_traitsIcEENS_9allocatorIcEEEENS_4lessIS6_EENS4_IS6_EEED1B8ne180100Ev, symObjAddr: 0x32D4, symBinAddr: 0x100005668, symSize: 0x6C }
  - { offset: 0x18E95, size: 0x8, addend: 0x0, symName: __Z10buildIndexRKNSt3__112basic_stringIcNS_11char_traitsIcEENS_9allocatorIcEEEERNS_3mapIS5_NS_3setIS5_NS_4lessIS5_EENS3_IS5_EEEESB_NS3_INS_4pairIS6_SD_EEEEEE, symObjAddr: 0x3340, symBinAddr: 0x1000056D4, symSize: 0xEC0 }
  - { offset: 0x19250, size: 0x8, addend: 0x0, symName: __ZNSt3__114basic_ifstreamIcNS_11char_traitsIcEEEC1Ev, symObjAddr: 0x4200, symBinAddr: 0x100006594, symSize: 0x328 }
  - { offset: 0x1927C, size: 0x8, addend: 0x0, symName: __ZNKSt3__114basic_ifstreamIcNS_11char_traitsIcEEE7is_openEv, symObjAddr: 0x4528, symBinAddr: 0x1000068BC, symSize: 0x1B4 }
  - { offset: 0x192A4, size: 0x8, addend: 0x0, symName: __ZNSt3__13setINS_12basic_stringIcNS_11char_traitsIcEENS_9allocatorIcEEEENS_4lessIS6_EENS4_IS6_EEEaSB8ne180100EOSA_, symObjAddr: 0x49AC, symBinAddr: 0x100006D40, symSize: 0x108 }
  - { offset: 0x192D9, size: 0x8, addend: 0x0, symName: __ZNSt3__13setINS_12basic_stringIcNS_11char_traitsIcEENS_9allocatorIcEEEENS_4lessIS6_EENS4_IS6_EEE5beginB8ne180100Ev, symObjAddr: 0x4AB4, symBinAddr: 0x100006E48, symSize: 0x228 }
  - { offset: 0x19300, size: 0x8, addend: 0x0, symName: __ZNSt3__13setINS_12basic_stringIcNS_11char_traitsIcEENS_9allocatorIcEEEENS_4lessIS6_EENS4_IS6_EEE3endB8ne180100Ev, symObjAddr: 0x4CDC, symBinAddr: 0x100007070, symSize: 0x230 }
  - { offset: 0x19327, size: 0x8, addend: 0x0, symName: __ZNKSt3__121__tree_const_iteratorINS_12basic_stringIcNS_11char_traitsIcEENS_9allocatorIcEEEEPNS_11__tree_nodeIS6_PvEElEdeB8ne180100Ev, symObjAddr: 0x4FAC, symBinAddr: 0x100007340, symSize: 0xD8 }
  - { offset: 0x1934D, size: 0x8, addend: 0x0, symName: __ZNSt3__13mapINS_12basic_stringIcNS_11char_traitsIcEENS_9allocatorIcEEEENS_3setIS6_NS_4lessIS6_EENS4_IS6_EEEES9_NS4_INS_4pairIKS6_SB_EEEEEixERSD_, symObjAddr: 0x5084, symBinAddr: 0x100007418, symSize: 0x3F4 }
  - { offset: 0x19386, size: 0x8, addend: 0x0, symName: __ZNSt3__13mapINS_12basic_stringIcNS_11char_traitsIcEENS_9allocatorIcEEEENS_3setIS6_NS_4lessIS6_EENS4_IS6_EEEES9_NS4_INS_4pairIKS6_SB_EEEEE2atERSD_, symObjAddr: 0x5478, symBinAddr: 0x10000780C, symSize: 0x46C }
  - { offset: 0x193E2, size: 0x8, addend: 0x0, symName: __ZNSt3__13setINS_12basic_stringIcNS_11char_traitsIcEENS_9allocatorIcEEEENS_4lessIS6_EENS4_IS6_EEEaSB8ne180100ERKSA_, symObjAddr: 0x58E4, symBinAddr: 0x100007C78, symSize: 0x108 }
  - { offset: 0x19417, size: 0x8, addend: 0x0, symName: __ZNSt3__121__tree_const_iteratorINS_12basic_stringIcNS_11char_traitsIcEENS_9allocatorIcEEEEPNS_11__tree_nodeIS6_PvEElEppB8ne180100Ev, symObjAddr: 0x59EC, symBinAddr: 0x100007D80, symSize: 0x14C }
  - { offset: 0x1943D, size: 0x8, addend: 0x0, symName: __ZNSt3__114basic_ifstreamIcNS_11char_traitsIcEEE5closeEv, symObjAddr: 0x5B38, symBinAddr: 0x100007ECC, symSize: 0x344 }
  - { offset: 0x1946B, size: 0x8, addend: 0x0, symName: __ZNSt3__114basic_ifstreamIcNS_11char_traitsIcEEED1Ev, symObjAddr: 0x5E7C, symBinAddr: 0x100008210, symSize: 0x80 }
  - { offset: 0x19497, size: 0x8, addend: 0x0, symName: __Z16findQueryMatchesRKNSt3__13mapINS_12basic_stringIcNS_11char_traitsIcEENS_9allocatorIcEEEENS_3setIS6_NS_4lessIS6_EENS4_IS6_EEEES9_NS4_INS_4pairIKS6_SB_EEEEEERSD_, symObjAddr: 0x5EFC, symBinAddr: 0x100008290, symSize: 0x17CC }
  - { offset: 0x19652, size: 0x8, addend: 0x0, symName: __ZNKSt3__13mapINS_12basic_stringIcNS_11char_traitsIcEENS_9allocatorIcEEEENS_3setIS6_NS_4lessIS6_EENS4_IS6_EEEES9_NS4_INS_4pairIKS6_SB_EEEEE5countB8ne180100ERSD_, symObjAddr: 0x76C8, symBinAddr: 0x100009A5C, symSize: 0xD0 }
  - { offset: 0x19687, size: 0x8, addend: 0x0, symName: __ZNKSt3__13mapINS_12basic_stringIcNS_11char_traitsIcEENS_9allocatorIcEEEENS_3setIS6_NS_4lessIS6_EENS4_IS6_EEEES9_NS4_INS_4pairIKS6_SB_EEEEE2atERSD_, symObjAddr: 0x7798, symBinAddr: 0x100009B2C, symSize: 0x440 }
  - { offset: 0x196E3, size: 0x8, addend: 0x0, symName: __ZNSt3__112basic_stringIcNS_11char_traitsIcEENS_9allocatorIcEEEixB8ne180100Em, symObjAddr: 0x7BD8, symBinAddr: 0x100009F6C, symSize: 0x14C }
  - { offset: 0x19718, size: 0x8, addend: 0x0, symName: __ZNKSt3__13setINS_12basic_stringIcNS_11char_traitsIcEENS_9allocatorIcEEEENS_4lessIS6_EENS4_IS6_EEE5beginB8ne180100Ev, symObjAddr: 0x7D24, symBinAddr: 0x10000A0B8, symSize: 0x98 }
  - { offset: 0x1973E, size: 0x8, addend: 0x0, symName: __ZNKSt3__13setINS_12basic_stringIcNS_11char_traitsIcEENS_9allocatorIcEEEENS_4lessIS6_EENS4_IS6_EEE3endB8ne180100Ev, symObjAddr: 0x7DBC, symBinAddr: 0x10000A150, symSize: 0x98 }
  - { offset: 0x19764, size: 0x8, addend: 0x0, symName: __ZNSt3__13setINS_12basic_stringIcNS_11char_traitsIcEENS_9allocatorIcEEEENS_4lessIS6_EENS4_IS6_EEE4findB8ne180100ERKS6_, symObjAddr: 0x7E54, symBinAddr: 0x10000A1E8, symSize: 0x268 }
  - { offset: 0x1979B, size: 0x8, addend: 0x0, symName: __ZNSt3__13setINS_12basic_stringIcNS_11char_traitsIcEENS_9allocatorIcEEEENS_4lessIS6_EENS4_IS6_EEE5eraseB8ne180100ERKS6_, symObjAddr: 0x80BC, symBinAddr: 0x10000A450, symSize: 0xD8 }
  - { offset: 0x197CF, size: 0x8, addend: 0x0, symName: __Z12searchEngineRKNSt3__112basic_stringIcNS_11char_traitsIcEENS_9allocatorIcEEEE, symObjAddr: 0x8194, symBinAddr: 0x10000A528, symSize: 0x1574 }
  - { offset: 0x198A3, size: 0x8, addend: 0x0, symName: __ZNSt3__13mapINS_12basic_stringIcNS_11char_traitsIcEENS_9allocatorIcEEEENS_3setIS6_NS_4lessIS6_EENS4_IS6_EEEES9_NS4_INS_4pairIKS6_SB_EEEEEC1B8ne180100Ev, symObjAddr: 0x9708, symBinAddr: 0x10000BA9C, symSize: 0x6C }
  - { offset: 0x198CD, size: 0x8, addend: 0x0, symName: __ZNSt3__113basic_ostreamIcNS_11char_traitsIcEEElsB8ne180100EPFRS3_S4_E, symObjAddr: 0x9824, symBinAddr: 0x10000BBB8, symSize: 0x12C }
  - { offset: 0x19901, size: 0x8, addend: 0x0, symName: __ZNKSt3__13mapINS_12basic_stringIcNS_11char_traitsIcEENS_9allocatorIcEEEENS_3setIS6_NS_4lessIS6_EENS4_IS6_EEEES9_NS4_INS_4pairIKS6_SB_EEEEE4sizeB8ne180100Ev, symObjAddr: 0x9CDC, symBinAddr: 0x10000C070, symSize: 0x10C }
  - { offset: 0x19927, size: 0x8, addend: 0x0, symName: __ZNKSt3__13setINS_12basic_stringIcNS_11char_traitsIcEENS_9allocatorIcEEEENS_4lessIS6_EENS4_IS6_EEE4sizeB8ne180100Ev, symObjAddr: 0x9DE8, symBinAddr: 0x10000C17C, symSize: 0x114 }
  - { offset: 0x1994D, size: 0x8, addend: 0x0, symName: __ZNSt3__13mapINS_12basic_stringIcNS_11char_traitsIcEENS_9allocatorIcEEEENS_3setIS6_NS_4lessIS6_EENS4_IS6_EEEES9_NS4_INS_4pairIKS6_SB_EEEEED1B8ne180100Ev, symObjAddr: 0xA000, symBinAddr: 0x10000C394, symSize: 0x64 }
  - { offset: 0x19977, size: 0x8, addend: 0x0, symName: __ZNSt3__112basic_stringIcNS_11char_traitsIcEENS_9allocatorIcEEEC2B8ne180100ILi0EEEPKc, symObjAddr: 0xA064, symBinAddr: 0x10000C3F8, symSize: 0x244 }
  - { offset: 0x199BE, size: 0x8, addend: 0x0, symName: __ZNSt3__117__compressed_pairINS_12basic_stringIcNS_11char_traitsIcEENS_9allocatorIcEEE5__repES5_EC1B8ne180100INS_18__default_init_tagESA_EEOT_OT0_, symObjAddr: 0xA2A8, symBinAddr: 0x10000C63C, symSize: 0x7C }
  - { offset: 0x19A16, size: 0x8, addend: 0x0, symName: __ZNSt3__111char_traitsIcE6lengthB8ne180100EPKc, symObjAddr: 0xA324, symBinAddr: 0x10000C6B8, symSize: 0x40 }
  - { offset: 0x19A39, size: 0x8, addend: 0x0, symName: __ZNSt3__117__compressed_pairINS_12basic_stringIcNS_11char_traitsIcEENS_9allocatorIcEEE5__repES5_EC2B8ne180100INS_18__default_init_tagESA_EEOT_OT0_, symObjAddr: 0xA364, symBinAddr: 0x10000C6F8, symSize: 0xC8 }
  - { offset: 0x19A91, size: 0x8, addend: 0x0, symName: __ZNSt3__122__compressed_pair_elemINS_12basic_stringIcNS_11char_traitsIcEENS_9allocatorIcEEE5__repELi0ELb0EEC2B8ne180100ENS_18__default_init_tagE, symObjAddr: 0xA42C, symBinAddr: 0x10000C7C0, symSize: 0x5C }
  - { offset: 0x19AC5, size: 0x8, addend: 0x0, symName: __ZNSt3__122__compressed_pair_elemINS_9allocatorIcEELi1ELb1EEC2B8ne180100ENS_18__default_init_tagE, symObjAddr: 0xA488, symBinAddr: 0x10000C81C, symSize: 0x70 }
  - { offset: 0x19AF9, size: 0x8, addend: 0x0, symName: __ZNSt3__19allocatorIcEC2B8ne180100Ev, symObjAddr: 0xA4F8, symBinAddr: 0x10000C88C, symSize: 0x70 }
  - { offset: 0x19B23, size: 0x8, addend: 0x0, symName: __ZNSt3__116__non_trivial_ifILb1ENS_9allocatorIcEEEC2B8ne180100Ev, symObjAddr: 0xA568, symBinAddr: 0x10000C8FC, symSize: 0x50 }
  - { offset: 0x19B4D, size: 0x8, addend: 0x0, symName: __ZNKSt3__112basic_stringIcNS_11char_traitsIcEENS_9allocatorIcEEE4sizeB8ne180100Ev, symObjAddr: 0xA5EC, symBinAddr: 0x10000C980, symSize: 0x88 }
  - { offset: 0x19B73, size: 0x8, addend: 0x0, symName: __ZNKSt3__112basic_stringIcNS_11char_traitsIcEENS_9allocatorIcEEE9__is_longB8ne180100Ev, symObjAddr: 0xA674, symBinAddr: 0x10000CA08, symSize: 0x1B4 }
  - { offset: 0x19B99, size: 0x8, addend: 0x0, symName: __ZNKSt3__112basic_stringIcNS_11char_traitsIcEENS_9allocatorIcEEE15__get_long_sizeB8ne180100Ev, symObjAddr: 0xA828, symBinAddr: 0x10000CBBC, symSize: 0x1C8 }
  - { offset: 0x19BBF, size: 0x8, addend: 0x0, symName: __ZNKSt3__112basic_stringIcNS_11char_traitsIcEENS_9allocatorIcEEE16__get_short_sizeB8ne180100Ev, symObjAddr: 0xA9F0, symBinAddr: 0x10000CD84, symSize: 0x1B4 }
  - { offset: 0x19BE5, size: 0x8, addend: 0x0, symName: __ZNKSt3__117__compressed_pairINS_12basic_stringIcNS_11char_traitsIcEENS_9allocatorIcEEE5__repES5_E5firstB8ne180100Ev, symObjAddr: 0xABA4, symBinAddr: 0x10000CF38, symSize: 0xEC }
  - { offset: 0x19C0B, size: 0x8, addend: 0x0, symName: __ZNKSt3__122__compressed_pair_elemINS_12basic_stringIcNS_11char_traitsIcEENS_9allocatorIcEEE5__repELi0ELb0EE5__getB8ne180100Ev, symObjAddr: 0xAC90, symBinAddr: 0x10000D024, symSize: 0x94 }
  - { offset: 0x19C30, size: 0x8, addend: 0x0, symName: __Z8__istypeim, symObjAddr: 0xAD24, symBinAddr: 0x10000D0B8, symSize: 0x21C }
  - { offset: 0x19C6A, size: 0x8, addend: 0x0, symName: __Z7isasciii, symObjAddr: 0xAF40, symBinAddr: 0x10000D2D4, symSize: 0x20 }
  - { offset: 0x19C97, size: 0x8, addend: 0x0, symName: __ZNSt3__112basic_stringIcNS_11char_traitsIcEENS_9allocatorIcEEEC2B8ne180100Ev, symObjAddr: 0xAF60, symBinAddr: 0x10000D2F4, symSize: 0x240 }
  - { offset: 0x19CC8, size: 0x8, addend: 0x0, symName: __ZNSt3__117__compressed_pairINS_12basic_stringIcNS_11char_traitsIcEENS_9allocatorIcEEE5__repES5_EC1B8ne180100INS_16__value_init_tagENS_18__default_init_tagEEEOT_OT0_, symObjAddr: 0xB1A0, symBinAddr: 0x10000D534, symSize: 0x74 }
  - { offset: 0x19D20, size: 0x8, addend: 0x0, symName: __ZNKSt3__112basic_stringIcNS_11char_traitsIcEENS_9allocatorIcEEE14__annotate_newB8ne180100Em, symObjAddr: 0xB214, symBinAddr: 0x10000D5A8, symSize: 0x58 }
  - { offset: 0x19D55, size: 0x8, addend: 0x0, symName: __ZNSt3__117__compressed_pairINS_12basic_stringIcNS_11char_traitsIcEENS_9allocatorIcEEE5__repES5_EC2B8ne180100INS_16__value_init_tagENS_18__default_init_tagEEEOT_OT0_, symObjAddr: 0xB26C, symBinAddr: 0x10000D600, symSize: 0xC8 }
  - { offset: 0x19DAD, size: 0x8, addend: 0x0, symName: __ZNSt3__122__compressed_pair_elemINS_12basic_stringIcNS_11char_traitsIcEENS_9allocatorIcEEE5__repELi0ELb0EEC2B8ne180100ENS_16__value_init_tagE, symObjAddr: 0xB334, symBinAddr: 0x10000D6C8, symSize: 0x6C }
  - { offset: 0x19DE1, size: 0x8, addend: 0x0, symName: __ZNSt3__112basic_stringIcNS_11char_traitsIcEENS_9allocatorIcEEE13__move_assignB8ne180100ERS5_NS_17integral_constantIbLb1EEE, symObjAddr: 0xB3A0, symBinAddr: 0x10000D734, symSize: 0x564 }
  - { offset: 0x19E45, size: 0x8, addend: 0x0, symName: __ZNKSt3__112basic_stringIcNS_11char_traitsIcEENS_9allocatorIcEEE17__annotate_deleteB8ne180100Ev, symObjAddr: 0xB904, symBinAddr: 0x10000DC98, symSize: 0x5C }
  - { offset: 0x19E6B, size: 0x8, addend: 0x0, symName: __ZNSt3__116allocator_traitsINS_9allocatorIcEEE10deallocateB8ne180100ERS2_Pcm, symObjAddr: 0xB960, symBinAddr: 0x10000DCF4, symSize: 0x34 }
  - { offset: 0x19EAD, size: 0x8, addend: 0x0, symName: __ZNSt3__112basic_stringIcNS_11char_traitsIcEENS_9allocatorIcEEE7__allocB8ne180100Ev, symObjAddr: 0xB994, symBinAddr: 0x10000DD28, symSize: 0xB4 }
  - { offset: 0x19ED3, size: 0x8, addend: 0x0, symName: __ZNSt3__112basic_stringIcNS_11char_traitsIcEENS_9allocatorIcEEE18__get_long_pointerB8ne180100Ev, symObjAddr: 0xBA48, symBinAddr: 0x10000DDDC, symSize: 0x1C0 }
  - { offset: 0x19EF9, size: 0x8, addend: 0x0, symName: __ZNKSt3__112basic_stringIcNS_11char_traitsIcEENS_9allocatorIcEEE14__get_long_capB8ne180100Ev, symObjAddr: 0xBC08, symBinAddr: 0x10000DF9C, symSize: 0x190 }
  - { offset: 0x19F1F, size: 0x8, addend: 0x0, symName: __ZNSt3__112basic_stringIcNS_11char_traitsIcEENS_9allocatorIcEEE19__move_assign_allocB8ne180100ERS5_, symObjAddr: 0xBD98, symBinAddr: 0x10000E12C, symSize: 0x9C }
  - { offset: 0x19F54, size: 0x8, addend: 0x0, symName: __ZNSt3__117__compressed_pairINS_12basic_stringIcNS_11char_traitsIcEENS_9allocatorIcEEE5__repES5_E5firstB8ne180100Ev, symObjAddr: 0xBE34, symBinAddr: 0x10000E1C8, symSize: 0xEC }
  - { offset: 0x19F7A, size: 0x8, addend: 0x0, symName: __ZNSt3__112basic_stringIcNS_11char_traitsIcEENS_9allocatorIcEEE16__set_short_sizeB8ne180100Em, symObjAddr: 0xBF20, symBinAddr: 0x10000E2B4, symSize: 0x324 }
  - { offset: 0x19FAF, size: 0x8, addend: 0x0, symName: __ZNSt3__111char_traitsIcE6assignB8ne180100ERcRKc, symObjAddr: 0xC244, symBinAddr: 0x10000E5D8, symSize: 0xDC }
  - { offset: 0x19FE0, size: 0x8, addend: 0x0, symName: __ZNSt3__112basic_stringIcNS_11char_traitsIcEENS_9allocatorIcEEE19__get_short_pointerB8ne180100Ev, symObjAddr: 0xC320, symBinAddr: 0x10000E6B4, symSize: 0x174 }
  - { offset: 0x1A006, size: 0x8, addend: 0x0, symName: __ZNKSt3__112basic_stringIcNS_11char_traitsIcEENS_9allocatorIcEEE17__annotate_shrinkB8ne180100Em, symObjAddr: 0xC494, symBinAddr: 0x10000E828, symSize: 0x58 }
  - { offset: 0x1A03B, size: 0x8, addend: 0x0, symName: __ZNSt3__19allocatorIcE10deallocateB8ne180100EPcm, symObjAddr: 0xC4EC, symBinAddr: 0x10000E880, symSize: 0x78 }
  - { offset: 0x1A07D, size: 0x8, addend: 0x0, symName: __ZNSt3__117__compressed_pairINS_12basic_stringIcNS_11char_traitsIcEENS_9allocatorIcEEE5__repES5_E6secondB8ne180100Ev, symObjAddr: 0xC6B0, symBinAddr: 0x10000EA44, symSize: 0xC4 }
  - { offset: 0x1A0A3, size: 0x8, addend: 0x0, symName: __ZNSt3__122__compressed_pair_elemINS_9allocatorIcEELi1ELb1EE5__getB8ne180100Ev, symObjAddr: 0xC774, symBinAddr: 0x10000EB08, symSize: 0x64 }
  - { offset: 0x1A0C9, size: 0x8, addend: 0x0, symName: __ZNSt3__112basic_stringIcNS_11char_traitsIcEENS_9allocatorIcEEE19__move_assign_allocB8ne180100ERS5_NS_17integral_constantIbLb1EEE, symObjAddr: 0xC7D8, symBinAddr: 0x10000EB6C, symSize: 0x90 }
  - { offset: 0x1A10A, size: 0x8, addend: 0x0, symName: __ZNSt3__122__compressed_pair_elemINS_12basic_stringIcNS_11char_traitsIcEENS_9allocatorIcEEE5__repELi0ELb0EE5__getB8ne180100Ev, symObjAddr: 0xC868, symBinAddr: 0x10000EBFC, symSize: 0x94 }
  - { offset: 0x1A130, size: 0x8, addend: 0x0, symName: __ZNSt3__114pointer_traitsIPcE10pointer_toB8ne180100ERc, symObjAddr: 0xC8FC, symBinAddr: 0x10000EC90, symSize: 0x1C }
  - { offset: 0x1A153, size: 0x8, addend: 0x0, symName: __ZNKSt3__112basic_stringIcNS_11char_traitsIcEENS_9allocatorIcEEEcvNS_17basic_string_viewIcS2_EEB8ne180100Ev, symObjAddr: 0xCB78, symBinAddr: 0x10000EF0C, symSize: 0x20C }
  - { offset: 0x1A17A, size: 0x8, addend: 0x0, symName: __ZNSt3__117basic_string_viewIcNS_11char_traitsIcEEEC1B8ne180100EPKc, symObjAddr: 0xCD84, symBinAddr: 0x10000F118, symSize: 0x6C }
  - { offset: 0x1A1B3, size: 0x8, addend: 0x0, symName: __ZNKSt3__117basic_string_viewIcNS_11char_traitsIcEEE4sizeB8ne180100Ev, symObjAddr: 0xCDF0, symBinAddr: 0x10000F184, symSize: 0xA0 }
  - { offset: 0x1A1D9, size: 0x8, addend: 0x0, symName: __ZNKSt3__117basic_string_viewIcNS_11char_traitsIcEEE7compareES3_, symObjAddr: 0xCE90, symBinAddr: 0x10000F224, symSize: 0x3C8 }
  - { offset: 0x1A233, size: 0x8, addend: 0x0, symName: __ZNSt3__111char_traitsIcE7compareB8ne180100EPKcS3_m, symObjAddr: 0xD334, symBinAddr: 0x10000F6C8, symSize: 0x34 }
  - { offset: 0x1A272, size: 0x8, addend: 0x0, symName: __ZNKSt3__117basic_string_viewIcNS_11char_traitsIcEEE4dataB8ne180100Ev, symObjAddr: 0xD368, symBinAddr: 0x10000F6FC, symSize: 0xA4 }
  - { offset: 0x1A2A3, size: 0x8, addend: 0x0, symName: __ZNKSt3__16__lessIvvEclB8ne180100ImmEEbRKT_RKT0_, symObjAddr: 0xD67C, symBinAddr: 0x10000FA10, symSize: 0xD0 }
  - { offset: 0x1A2F7, size: 0x8, addend: 0x0, symName: __ZNKSt3__112basic_stringIcNS_11char_traitsIcEENS_9allocatorIcEEE4dataB8ne180100Ev, symObjAddr: 0xD74C, symBinAddr: 0x10000FAE0, symSize: 0x60 }
  - { offset: 0x1A31D, size: 0x8, addend: 0x0, symName: __ZNSt3__117basic_string_viewIcNS_11char_traitsIcEEEC1B8ne180100EPKcm, symObjAddr: 0xD7AC, symBinAddr: 0x10000FB40, symSize: 0x7C }
  - { offset: 0x1A365, size: 0x8, addend: 0x0, symName: __ZNKSt3__112basic_stringIcNS_11char_traitsIcEENS_9allocatorIcEEE13__get_pointerB8ne180100Ev, symObjAddr: 0xD83C, symBinAddr: 0x10000FBD0, symSize: 0x88 }
  - { offset: 0x1A38B, size: 0x8, addend: 0x0, symName: __ZNKSt3__112basic_stringIcNS_11char_traitsIcEENS_9allocatorIcEEE18__get_long_pointerB8ne180100Ev, symObjAddr: 0xD8C4, symBinAddr: 0x10000FC58, symSize: 0x1C0 }
  - { offset: 0x1A3B1, size: 0x8, addend: 0x0, symName: __ZNKSt3__112basic_stringIcNS_11char_traitsIcEENS_9allocatorIcEEE19__get_short_pointerB8ne180100Ev, symObjAddr: 0xDA84, symBinAddr: 0x10000FE18, symSize: 0x17C }
  - { offset: 0x1A3D7, size: 0x8, addend: 0x0, symName: __ZNSt3__114pointer_traitsIPKcE10pointer_toB8ne180100ERS1_, symObjAddr: 0xDC00, symBinAddr: 0x10000FF94, symSize: 0x14 }
  - { offset: 0x1A3FA, size: 0x8, addend: 0x0, symName: __ZNSt3__117basic_string_viewIcNS_11char_traitsIcEEEC2B8ne180100EPKcm, symObjAddr: 0xDC14, symBinAddr: 0x10000FFA8, symSize: 0xF8 }
  - { offset: 0x1A442, size: 0x8, addend: 0x0, symName: __ZNSt3__117basic_string_viewIcNS_11char_traitsIcEEEC2B8ne180100EPKc, symObjAddr: 0xDD0C, symBinAddr: 0x1000100A0, symSize: 0x108 }
  - { offset: 0x1A47B, size: 0x8, addend: 0x0, symName: __ZNSt3__119basic_istringstreamIcNS_11char_traitsIcEENS_9allocatorIcEEED2Ev, symObjAddr: 0xDE38, symBinAddr: 0x1000101CC, symSize: 0x1B8 }
  - { offset: 0x1A4B5, size: 0x8, addend: 0x0, symName: __ZTv0_n24_NSt3__119basic_istringstreamIcNS_11char_traitsIcEENS_9allocatorIcEEED1Ev, symObjAddr: 0xDFF0, symBinAddr: 0x100010384, symSize: 0xA0 }
  - { offset: 0x1A4D2, size: 0x8, addend: 0x0, symName: __ZNSt3__115basic_stringbufIcNS_11char_traitsIcEENS_9allocatorIcEEED1Ev, symObjAddr: 0xE090, symBinAddr: 0x100010424, symSize: 0x64 }
  - { offset: 0x1A4FF, size: 0x8, addend: 0x0, symName: __ZNSt3__115basic_stringbufIcNS_11char_traitsIcEENS_9allocatorIcEEED2Ev, symObjAddr: 0xE0F4, symBinAddr: 0x100010488, symSize: 0xC4 }
  - { offset: 0x1A52C, size: 0x8, addend: 0x0, symName: __ZNSt3__114basic_ifstreamIcNS_11char_traitsIcEEED2Ev, symObjAddr: 0xE1B8, symBinAddr: 0x10001054C, symSize: 0x1B8 }
  - { offset: 0x1A566, size: 0x8, addend: 0x0, symName: __ZTv0_n24_NSt3__114basic_ifstreamIcNS_11char_traitsIcEEED1Ev, symObjAddr: 0xE370, symBinAddr: 0x100010704, symSize: 0xA8 }
  - { offset: 0x1A57D, size: 0x8, addend: 0x0, symName: __ZNSt3__112basic_stringIcNS_11char_traitsIcEENS_9allocatorIcEEE13__fits_in_ssoB8ne180100Em, symObjAddr: 0xE418, symBinAddr: 0x1000107AC, symSize: 0x1C }
  - { offset: 0x1A5A1, size: 0x8, addend: 0x0, symName: __ZNSt3__112basic_stringIcNS_11char_traitsIcEENS_9allocatorIcEEE13__get_pointerB8ne180100Ev, symObjAddr: 0xE434, symBinAddr: 0x1000107C8, symSize: 0x88 }
  - { offset: 0x1A5C7, size: 0x8, addend: 0x0, symName: __ZNSt3__13setINS_12basic_stringIcNS_11char_traitsIcEENS_9allocatorIcEEEENS_4lessIS6_EENS4_IS6_EEEC2B8ne180100Ev, symObjAddr: 0xE4BC, symBinAddr: 0x100010850, symSize: 0x204 }
  - { offset: 0x1A5F2, size: 0x8, addend: 0x0, symName: __ZNSt3__16__treeINS_12basic_stringIcNS_11char_traitsIcEENS_9allocatorIcEEEENS_4lessIS6_EENS4_IS6_EEEC1ERKS8_, symObjAddr: 0xE6C0, symBinAddr: 0x100010A54, symSize: 0x6C }
  - { offset: 0x1A62D, size: 0x8, addend: 0x0, symName: __ZNSt3__16__treeINS_12basic_stringIcNS_11char_traitsIcEENS_9allocatorIcEEEENS_4lessIS6_EENS4_IS6_EEEC2ERKS8_, symObjAddr: 0xE72C, symBinAddr: 0x100010AC0, symSize: 0x2F0 }
  - { offset: 0x1A66A, size: 0x8, addend: 0x0, symName: __ZNSt3__117__compressed_pairINS_15__tree_end_nodeIPNS_16__tree_node_baseIPvEEEENS_9allocatorINS_11__tree_nodeINS_12basic_stringIcNS_11char_traitsIcEENS7_IcEEEES3_EEEEEC1B8ne180100ILb1EvEEv, symObjAddr: 0xEA1C, symBinAddr: 0x100010DB0, symSize: 0x64 }
  - { offset: 0x1A6A5, size: 0x8, addend: 0x0, symName: __ZNSt3__117__compressed_pairImNS_4lessINS_12basic_stringIcNS_11char_traitsIcEENS_9allocatorIcEEEEEEEC1B8ne180100IiRKS8_EEOT_OT0_, symObjAddr: 0xEA80, symBinAddr: 0x100010E14, symSize: 0x74 }
  - { offset: 0x1A6FD, size: 0x8, addend: 0x0, symName: __ZNSt3__16__treeINS_12basic_stringIcNS_11char_traitsIcEENS_9allocatorIcEEEENS_4lessIS6_EENS4_IS6_EEE10__end_nodeB8ne180100Ev, symObjAddr: 0xEAF4, symBinAddr: 0x100010E88, symSize: 0xDC }
  - { offset: 0x1A723, size: 0x8, addend: 0x0, symName: __ZNSt3__16__treeINS_12basic_stringIcNS_11char_traitsIcEENS_9allocatorIcEEEENS_4lessIS6_EENS4_IS6_EEE12__begin_nodeB8ne180100Ev, symObjAddr: 0xEBD0, symBinAddr: 0x100010F64, symSize: 0x8C }
  - { offset: 0x1A749, size: 0x8, addend: 0x0, symName: __ZNSt3__117__compressed_pairINS_15__tree_end_nodeIPNS_16__tree_node_baseIPvEEEENS_9allocatorINS_11__tree_nodeINS_12basic_stringIcNS_11char_traitsIcEENS7_IcEEEES3_EEEEEC2B8ne180100ILb1EvEEv, symObjAddr: 0xEC5C, symBinAddr: 0x100010FF0, symSize: 0xC0 }
  - { offset: 0x1A77E, size: 0x8, addend: 0x0, symName: __ZNSt3__122__compressed_pair_elemINS_15__tree_end_nodeIPNS_16__tree_node_baseIPvEEEELi0ELb0EEC2B8ne180100ENS_16__value_init_tagE, symObjAddr: 0xED1C, symBinAddr: 0x1000110B0, symSize: 0x64 }
  - { offset: 0x1A7B2, size: 0x8, addend: 0x0, symName: __ZNSt3__122__compressed_pair_elemINS_9allocatorINS_11__tree_nodeINS_12basic_stringIcNS_11char_traitsIcEENS1_IcEEEEPvEEEELi1ELb1EEC2B8ne180100ENS_16__value_init_tagE, symObjAddr: 0xED80, symBinAddr: 0x100011114, symSize: 0x70 }
  - { offset: 0x1A7E6, size: 0x8, addend: 0x0, symName: __ZNSt3__115__tree_end_nodeIPNS_16__tree_node_baseIPvEEEC1B8ne180100Ev, symObjAddr: 0xEDF0, symBinAddr: 0x100011184, symSize: 0x64 }
  - { offset: 0x1A810, size: 0x8, addend: 0x0, symName: __ZNSt3__115__tree_end_nodeIPNS_16__tree_node_baseIPvEEEC2B8ne180100Ev, symObjAddr: 0xEE54, symBinAddr: 0x1000111E8, symSize: 0xA8 }
  - { offset: 0x1A83A, size: 0x8, addend: 0x0, symName: __ZNSt3__19allocatorINS_11__tree_nodeINS_12basic_stringIcNS_11char_traitsIcEENS0_IcEEEEPvEEEC2B8ne180100Ev, symObjAddr: 0xEEFC, symBinAddr: 0x100011290, symSize: 0x70 }
  - { offset: 0x1A864, size: 0x8, addend: 0x0, symName: __ZNSt3__116__non_trivial_ifILb1ENS_9allocatorINS_11__tree_nodeINS_12basic_stringIcNS_11char_traitsIcEENS1_IcEEEEPvEEEEEC2B8ne180100Ev, symObjAddr: 0xEF6C, symBinAddr: 0x100011300, symSize: 0x48 }
  - { offset: 0x1A88E, size: 0x8, addend: 0x0, symName: __ZNSt3__117__compressed_pairImNS_4lessINS_12basic_stringIcNS_11char_traitsIcEENS_9allocatorIcEEEEEEEC2B8ne180100IiRKS8_EEOT_OT0_, symObjAddr: 0xEFB4, symBinAddr: 0x100011348, symSize: 0x12C }
  - { offset: 0x1A8E6, size: 0x8, addend: 0x0, symName: __ZNSt3__122__compressed_pair_elemImLi0ELb0EEC2B8ne180100IivEEOT_, symObjAddr: 0xF0E0, symBinAddr: 0x100011474, symSize: 0x148 }
  - { offset: 0x1A928, size: 0x8, addend: 0x0, symName: __ZNSt3__122__compressed_pair_elemINS_4lessINS_12basic_stringIcNS_11char_traitsIcEENS_9allocatorIcEEEEEELi1ELb1EEC2B8ne180100IRKS8_vEEOT_, symObjAddr: 0xF228, symBinAddr: 0x1000115BC, symSize: 0x54 }
  - { offset: 0x1A96A, size: 0x8, addend: 0x0, symName: __ZNSt3__114pointer_traitsIPNS_15__tree_end_nodeIPNS_16__tree_node_baseIPvEEEEE10pointer_toB8ne180100ERS6_, symObjAddr: 0xF27C, symBinAddr: 0x100011610, symSize: 0x14 }
  - { offset: 0x1A98D, size: 0x8, addend: 0x0, symName: __ZNSt3__117__compressed_pairINS_15__tree_end_nodeIPNS_16__tree_node_baseIPvEEEENS_9allocatorINS_11__tree_nodeINS_12basic_stringIcNS_11char_traitsIcEENS7_IcEEEES3_EEEEE5firstB8ne180100Ev, symObjAddr: 0xF290, symBinAddr: 0x100011624, symSize: 0xEC }
  - { offset: 0x1A9B3, size: 0x8, addend: 0x0, symName: __ZNSt3__122__compressed_pair_elemINS_15__tree_end_nodeIPNS_16__tree_node_baseIPvEEEELi0ELb0EE5__getB8ne180100Ev, symObjAddr: 0xF37C, symBinAddr: 0x100011710, symSize: 0x8C }
  - { offset: 0x1A9D9, size: 0x8, addend: 0x0, symName: __ZNSt3__13setINS_12basic_stringIcNS_11char_traitsIcEENS_9allocatorIcEEEENS_4lessIS6_EENS4_IS6_EEED2B8ne180100Ev, symObjAddr: 0xF408, symBinAddr: 0x10001179C, symSize: 0x64 }
  - { offset: 0x1AA03, size: 0x8, addend: 0x0, symName: __ZNSt3__16__treeINS_12basic_stringIcNS_11char_traitsIcEENS_9allocatorIcEEEENS_4lessIS6_EENS4_IS6_EEED1Ev, symObjAddr: 0xF46C, symBinAddr: 0x100011800, symSize: 0x64 }
  - { offset: 0x1AA2F, size: 0x8, addend: 0x0, symName: __ZNSt3__16__treeINS_12basic_stringIcNS_11char_traitsIcEENS_9allocatorIcEEEENS_4lessIS6_EENS4_IS6_EEED2Ev, symObjAddr: 0xF4D0, symBinAddr: 0x100011864, symSize: 0x70 }
  - { offset: 0x1AA5B, size: 0x8, addend: 0x0, symName: __ZNSt3__16__treeINS_12basic_stringIcNS_11char_traitsIcEENS_9allocatorIcEEEENS_4lessIS6_EENS4_IS6_EEE7destroyEPNS_11__tree_nodeIS6_PvEE, symObjAddr: 0xF540, symBinAddr: 0x1000118D4, symSize: 0x3E4 }
  - { offset: 0x1AAA7, size: 0x8, addend: 0x0, symName: __ZNKSt3__16__treeINS_12basic_stringIcNS_11char_traitsIcEENS_9allocatorIcEEEENS_4lessIS6_EENS4_IS6_EEE6__rootB8ne180100Ev, symObjAddr: 0xF924, symBinAddr: 0x100011CB8, symSize: 0x14C }
  - { offset: 0x1AACD, size: 0x8, addend: 0x0, symName: __ZNSt3__16__treeINS_12basic_stringIcNS_11char_traitsIcEENS_9allocatorIcEEEENS_4lessIS6_EENS4_IS6_EEE12__node_allocB8ne180100Ev, symObjAddr: 0xFA70, symBinAddr: 0x100011E04, symSize: 0xCC }
  - { offset: 0x1AAF3, size: 0x8, addend: 0x0, symName: __ZNSt3__116allocator_traitsINS_9allocatorINS_11__tree_nodeINS_12basic_stringIcNS_11char_traitsIcEENS1_IcEEEEPvEEEEE7destroyB8ne180100IS7_vvEEvRSA_PT_, symObjAddr: 0xFB3C, symBinAddr: 0x100011ED0, symSize: 0x30 }
  - { offset: 0x1AB2E, size: 0x8, addend: 0x0, symName: __ZNSt3__122__tree_key_value_typesINS_12basic_stringIcNS_11char_traitsIcEENS_9allocatorIcEEEEE9__get_ptrB8ne180100ERS6_, symObjAddr: 0xFB6C, symBinAddr: 0x100011F00, symSize: 0x1C }
  - { offset: 0x1AB52, size: 0x8, addend: 0x0, symName: __ZNSt3__116allocator_traitsINS_9allocatorINS_11__tree_nodeINS_12basic_stringIcNS_11char_traitsIcEENS1_IcEEEEPvEEEEE10deallocateB8ne180100ERSA_PS9_m, symObjAddr: 0xFB88, symBinAddr: 0x100011F1C, symSize: 0x34 }
  - { offset: 0x1AB94, size: 0x8, addend: 0x0, symName: __ZNSt3__117__compressed_pairINS_15__tree_end_nodeIPNS_16__tree_node_baseIPvEEEENS_9allocatorINS_11__tree_nodeINS_12basic_stringIcNS_11char_traitsIcEENS7_IcEEEES3_EEEEE6secondB8ne180100Ev, symObjAddr: 0xFBBC, symBinAddr: 0x100011F50, symSize: 0xC4 }
  - { offset: 0x1ABBA, size: 0x8, addend: 0x0, symName: __ZNSt3__122__compressed_pair_elemINS_9allocatorINS_11__tree_nodeINS_12basic_stringIcNS_11char_traitsIcEENS1_IcEEEEPvEEEELi1ELb1EE5__getB8ne180100Ev, symObjAddr: 0xFC80, symBinAddr: 0x100012014, symSize: 0x6C }
  - { offset: 0x1ABE0, size: 0x8, addend: 0x0, symName: __ZNSt3__19allocatorINS_11__tree_nodeINS_12basic_stringIcNS_11char_traitsIcEENS0_IcEEEEPvEEE10deallocateB8ne180100EPS8_m, symObjAddr: 0xFD48, symBinAddr: 0x1000120DC, symSize: 0x74 }
  - { offset: 0x1AC22, size: 0x8, addend: 0x0, symName: __ZNKSt3__16__treeINS_12basic_stringIcNS_11char_traitsIcEENS_9allocatorIcEEEENS_4lessIS6_EENS4_IS6_EEE10__end_nodeB8ne180100Ev, symObjAddr: 0xFDBC, symBinAddr: 0x100012150, symSize: 0xDC }
  - { offset: 0x1AC48, size: 0x8, addend: 0x0, symName: __ZNKSt3__117__compressed_pairINS_15__tree_end_nodeIPNS_16__tree_node_baseIPvEEEENS_9allocatorINS_11__tree_nodeINS_12basic_stringIcNS_11char_traitsIcEENS7_IcEEEES3_EEEEE5firstB8ne180100Ev, symObjAddr: 0xFE98, symBinAddr: 0x10001222C, symSize: 0xEC }
  - { offset: 0x1AC6E, size: 0x8, addend: 0x0, symName: __ZNKSt3__122__compressed_pair_elemINS_15__tree_end_nodeIPNS_16__tree_node_baseIPvEEEELi0ELb0EE5__getB8ne180100Ev, symObjAddr: 0xFF84, symBinAddr: 0x100012318, symSize: 0x8C }
  - { offset: 0x1AC94, size: 0x8, addend: 0x0, symName: __ZNSt3__19basic_iosIcNS_11char_traitsIcEEEC2B8ne180100Ev, symObjAddr: 0x10010, symBinAddr: 0x1000123A4, symSize: 0xF8 }
  - { offset: 0x1ACBE, size: 0x8, addend: 0x0, symName: __ZNSt3__113basic_istreamIcNS_11char_traitsIcEEEC2B8ne180100EPNS_15basic_streambufIcS2_EE, symObjAddr: 0x10108, symBinAddr: 0x10001249C, symSize: 0x364 }
  - { offset: 0x1AD03, size: 0x8, addend: 0x0, symName: __ZNSt3__115basic_stringbufIcNS_11char_traitsIcEENS_9allocatorIcEEEC1B8ne180100ERKNS_12basic_stringIcS2_S4_EEj, symObjAddr: 0x1046C, symBinAddr: 0x100012800, symSize: 0x74 }
  - { offset: 0x1AD4B, size: 0x8, addend: 0x0, symName: __ZNSt3__18ios_baseC2B8ne180100Ev, symObjAddr: 0x104E0, symBinAddr: 0x100012874, symSize: 0xB4 }
  - { offset: 0x1AD75, size: 0x8, addend: 0x0, symName: __ZNSt3__19basic_iosIcNS_11char_traitsIcEEE4initB8ne180100EPNS_15basic_streambufIcS2_EE, symObjAddr: 0x10594, symBinAddr: 0x100012928, symSize: 0x2A4 }
  - { offset: 0x1ADAC, size: 0x8, addend: 0x0, symName: __ZNSt3__111char_traitsIcE3eofB8ne180100Ev, symObjAddr: 0x10838, symBinAddr: 0x100012BCC, symSize: 0x8 }
  - { offset: 0x1ADC0, size: 0x8, addend: 0x0, symName: __ZNSt3__115basic_stringbufIcNS_11char_traitsIcEENS_9allocatorIcEEEC2B8ne180100ERKNS_12basic_stringIcS2_S4_EEj, symObjAddr: 0x10840, symBinAddr: 0x100012BD4, symSize: 0x4B4 }
  - { offset: 0x1AE0B, size: 0x8, addend: 0x0, symName: __ZNKSt3__112basic_stringIcNS_11char_traitsIcEENS_9allocatorIcEEE13get_allocatorB8ne180100Ev, symObjAddr: 0x10CF4, symBinAddr: 0x100013088, symSize: 0x5C }
  - { offset: 0x1AE31, size: 0x8, addend: 0x0, symName: __ZNSt3__112basic_stringIcNS_11char_traitsIcEENS_9allocatorIcEEEC1B8ne180100ERKS4_, symObjAddr: 0x10D50, symBinAddr: 0x1000130E4, symSize: 0x6C }
  - { offset: 0x1AE6A, size: 0x8, addend: 0x0, symName: __ZNKSt3__112basic_stringIcNS_11char_traitsIcEENS_9allocatorIcEEE7__allocB8ne180100Ev, symObjAddr: 0x10DBC, symBinAddr: 0x100013150, symSize: 0xB4 }
  - { offset: 0x1AE90, size: 0x8, addend: 0x0, symName: __ZNKSt3__117__compressed_pairINS_12basic_stringIcNS_11char_traitsIcEENS_9allocatorIcEEE5__repES5_E6secondB8ne180100Ev, symObjAddr: 0x10E70, symBinAddr: 0x100013204, symSize: 0xC4 }
  - { offset: 0x1AEB6, size: 0x8, addend: 0x0, symName: __ZNKSt3__122__compressed_pair_elemINS_9allocatorIcEELi1ELb1EE5__getB8ne180100Ev, symObjAddr: 0x10F34, symBinAddr: 0x1000132C8, symSize: 0x64 }
  - { offset: 0x1AEDC, size: 0x8, addend: 0x0, symName: __ZNSt3__112basic_stringIcNS_11char_traitsIcEENS_9allocatorIcEEEC2B8ne180100ERKS4_, symObjAddr: 0x10F98, symBinAddr: 0x10001332C, symSize: 0x250 }
  - { offset: 0x1AF17, size: 0x8, addend: 0x0, symName: __ZNSt3__117__compressed_pairINS_12basic_stringIcNS_11char_traitsIcEENS_9allocatorIcEEE5__repES5_EC1B8ne180100INS_16__value_init_tagERKS5_EEOT_OT0_, symObjAddr: 0x111E8, symBinAddr: 0x10001357C, symSize: 0x74 }
  - { offset: 0x1AF6F, size: 0x8, addend: 0x0, symName: __ZNSt3__117__compressed_pairINS_12basic_stringIcNS_11char_traitsIcEENS_9allocatorIcEEE5__repES5_EC2B8ne180100INS_16__value_init_tagERKS5_EEOT_OT0_, symObjAddr: 0x1125C, symBinAddr: 0x1000135F0, symSize: 0xF0 }
  - { offset: 0x1AFC7, size: 0x8, addend: 0x0, symName: __ZNSt3__122__compressed_pair_elemINS_9allocatorIcEELi1ELb1EEC2B8ne180100IRKS2_vEEOT_, symObjAddr: 0x1134C, symBinAddr: 0x1000136E0, symSize: 0x4C }
  - { offset: 0x1B02C, size: 0x8, addend: 0x0, symName: __ZNKSt3__113basic_istreamIcNS_11char_traitsIcEEE6sentrycvbB8ne180100Ev, symObjAddr: 0x11398, symBinAddr: 0x10001372C, symSize: 0xCC }
  - { offset: 0x1B052, size: 0x8, addend: 0x0, symName: __ZNSt3__112basic_stringIcNS_11char_traitsIcEENS_9allocatorIcEEE5clearB8ne180100Ev, symObjAddr: 0x11464, symBinAddr: 0x1000137F8, symSize: 0x2CC }
  - { offset: 0x1B089, size: 0x8, addend: 0x0, symName: __ZNKSt3__18ios_base5widthB8ne180100Ev, symObjAddr: 0x11730, symBinAddr: 0x100013AC4, symSize: 0x124 }
  - { offset: 0x1B0B1, size: 0x8, addend: 0x0, symName: __ZNKSt3__112basic_stringIcNS_11char_traitsIcEENS_9allocatorIcEEE8max_sizeB8ne180100Ev, symObjAddr: 0x11854, symBinAddr: 0x100013BE8, symSize: 0x19C }
  - { offset: 0x1B103, size: 0x8, addend: 0x0, symName: __ZNSt3__114numeric_limitsIlE3maxB8ne180100Ev, symObjAddr: 0x119F0, symBinAddr: 0x100013D84, symSize: 0x1C }
  - { offset: 0x1B117, size: 0x8, addend: 0x0, symName: __ZNKSt3__19basic_iosIcNS_11char_traitsIcEEE5rdbufB8ne180100Ev, symObjAddr: 0x11B70, symBinAddr: 0x100013F04, symSize: 0x110 }
  - { offset: 0x1B13F, size: 0x8, addend: 0x0, symName: __ZNSt3__115basic_streambufIcNS_11char_traitsIcEEE5sgetcB8ne180100Ev, symObjAddr: 0x11C80, symBinAddr: 0x100014014, symSize: 0x3CC }
  - { offset: 0x1B165, size: 0x8, addend: 0x0, symName: __ZNSt3__111char_traitsIcE11eq_int_typeB8ne180100Eii, symObjAddr: 0x1204C, symBinAddr: 0x1000143E0, symSize: 0x2C }
  - { offset: 0x1B198, size: 0x8, addend: 0x0, symName: __ZNSt3__111char_traitsIcE12to_char_typeB8ne180100Ei, symObjAddr: 0x12078, symBinAddr: 0x10001440C, symSize: 0x18 }
  - { offset: 0x1B1EF, size: 0x8, addend: 0x0, symName: __ZNKSt3__15ctypeIcE2isB8ne180100Ejc, symObjAddr: 0x12090, symBinAddr: 0x100014424, symSize: 0x2C0 }
  - { offset: 0x1B233, size: 0x8, addend: 0x0, symName: __ZNSt3__115basic_streambufIcNS_11char_traitsIcEEE6sbumpcB8ne180100Ev, symObjAddr: 0x12350, symBinAddr: 0x1000146E4, symSize: 0x46C }
  - { offset: 0x1B259, size: 0x8, addend: 0x0, symName: __ZNSt3__18ios_base5widthB8ne180100El, symObjAddr: 0x127BC, symBinAddr: 0x100014B50, symSize: 0x1D8 }
  - { offset: 0x1B29F, size: 0x8, addend: 0x0, symName: __ZNSt3__18ios_base18__setstate_nothrowB8ne180100Ej, symObjAddr: 0x12994, symBinAddr: 0x100014D28, symSize: 0x2E4 }
  - { offset: 0x1B2D4, size: 0x8, addend: 0x0, symName: __ZNKSt3__19basic_iosIcNS_11char_traitsIcEEE10exceptionsB8ne180100Ev, symObjAddr: 0x12C78, symBinAddr: 0x10001500C, symSize: 0x110 }
  - { offset: 0x1B2FA, size: 0x8, addend: 0x0, symName: __ZNSt3__19basic_iosIcNS_11char_traitsIcEEE8setstateB8ne180100Ej, symObjAddr: 0x12D88, symBinAddr: 0x10001511C, symSize: 0x118 }
  - { offset: 0x1B32F, size: 0x8, addend: 0x0, symName: __ZNSt3__112basic_stringIcNS_11char_traitsIcEENS_9allocatorIcEEE15__set_long_sizeB8ne180100Em, symObjAddr: 0x12EA0, symBinAddr: 0x100015234, symSize: 0x1E0 }
  - { offset: 0x1B36F, size: 0x8, addend: 0x0, symName: __ZNSt3__116allocator_traitsINS_9allocatorIcEEE8max_sizeB8ne180100IS2_vvEEmRKS2_, symObjAddr: 0x13080, symBinAddr: 0x100015414, symSize: 0x5C }
  - { offset: 0x1B39B, size: 0x8, addend: 0x0, symName: __ZNSt3__114numeric_limitsImE3maxB8ne180100Ev, symObjAddr: 0x130DC, symBinAddr: 0x100015470, symSize: 0x1C }
  - { offset: 0x1B3AF, size: 0x8, addend: 0x0, symName: __ZNSt3__123__libcpp_numeric_limitsImLb1EE3maxB8ne180100Ev, symObjAddr: 0x130F8, symBinAddr: 0x10001548C, symSize: 0x10 }
  - { offset: 0x1B3C3, size: 0x8, addend: 0x0, symName: __ZNSt3__123__libcpp_numeric_limitsIlLb1EE3maxB8ne180100Ev, symObjAddr: 0x13108, symBinAddr: 0x10001549C, symSize: 0x8 }
  - { offset: 0x1B3D7, size: 0x8, addend: 0x0, symName: __ZNKSt3__18ios_base5rdbufB8ne180100Ev, symObjAddr: 0x13110, symBinAddr: 0x1000154A4, symSize: 0x12C }
  - { offset: 0x1B3FD, size: 0x8, addend: 0x0, symName: __ZNSt3__111char_traitsIcE11to_int_typeB8ne180100Ec, symObjAddr: 0x1323C, symBinAddr: 0x1000155D0, symSize: 0x14 }
  - { offset: 0x1B421, size: 0x8, addend: 0x0, symName: __ZNKSt3__18ios_base10exceptionsB8ne180100Ev, symObjAddr: 0x13250, symBinAddr: 0x1000155E4, symSize: 0x148 }
  - { offset: 0x1B449, size: 0x8, addend: 0x0, symName: __ZNSt3__18ios_base8setstateB8ne180100Ej, symObjAddr: 0x13398, symBinAddr: 0x10001572C, symSize: 0x1C4 }
  - { offset: 0x1B480, size: 0x8, addend: 0x0, symName: __ZNKSt3__19basic_iosIcNS_11char_traitsIcEEE4failB8ne180100Ev, symObjAddr: 0x1355C, symBinAddr: 0x1000158F0, symSize: 0x110 }
  - { offset: 0x1B4A6, size: 0x8, addend: 0x0, symName: __ZNKSt3__18ios_base4failB8ne180100Ev, symObjAddr: 0x1366C, symBinAddr: 0x100015A00, symSize: 0x154 }
  - { offset: 0x1B4CE, size: 0x8, addend: 0x0, symName: __ZNSt3__16__treeINS_12basic_stringIcNS_11char_traitsIcEENS_9allocatorIcEEEENS_4lessIS6_EENS4_IS6_EEE15__insert_uniqueB8ne180100ERKS6_, symObjAddr: 0x137C0, symBinAddr: 0x100015B54, symSize: 0x124 }
  - { offset: 0x1B503, size: 0x8, addend: 0x0, symName: __ZNSt3__14pairINS_21__tree_const_iteratorINS_12basic_stringIcNS_11char_traitsIcEENS_9allocatorIcEEEEPNS_11__tree_nodeIS7_PvEElEEbEC1B8ne180100INS_15__tree_iteratorIS7_SB_lEEbTnNS_9enable_ifIXclsr10_CheckArgsE17__enable_implicitIT_T0_EEEiE4typeELi0EEEONS0_ISI_SJ_EE, symObjAddr: 0x138E4, symBinAddr: 0x100015C78, symSize: 0x6C }
  - { offset: 0x1B553, size: 0x8, addend: 0x0, symName: __ZNSt3__16__treeINS_12basic_stringIcNS_11char_traitsIcEENS_9allocatorIcEEEENS_4lessIS6_EENS4_IS6_EEE25__emplace_unique_key_argsIS6_JRKS6_EEENS_4pairINS_15__tree_iteratorIS6_PNS_11__tree_nodeIS6_PvEElEEbEERKT_DpOT0_, symObjAddr: 0x13950, symBinAddr: 0x100015CE4, symSize: 0x55C }
  - { offset: 0x1B60D, size: 0x8, addend: 0x0, symName: __ZNSt3__122__tree_key_value_typesINS_12basic_stringIcNS_11char_traitsIcEENS_9allocatorIcEEEEE9__get_keyB8ne180100ERKS6_, symObjAddr: 0x13EAC, symBinAddr: 0x100016240, symSize: 0x58 }
  - { offset: 0x1B631, size: 0x8, addend: 0x0, symName: __ZNSt3__16__treeINS_12basic_stringIcNS_11char_traitsIcEENS_9allocatorIcEEEENS_4lessIS6_EENS4_IS6_EEE12__find_equalIS6_EERPNS_16__tree_node_baseIPvEERPNS_15__tree_end_nodeISF_EERKT_, symObjAddr: 0x13F04, symBinAddr: 0x100016298, symSize: 0xB50 }
  - { offset: 0x1B69C, size: 0x8, addend: 0x0, symName: __ZNSt3__16__treeINS_12basic_stringIcNS_11char_traitsIcEENS_9allocatorIcEEEENS_4lessIS6_EENS4_IS6_EEE16__construct_nodeIJRKS6_EEENS_10unique_ptrINS_11__tree_nodeIS6_PvEENS_22__tree_node_destructorINS4_ISH_EEEEEEDpOT_, symObjAddr: 0x14A54, symBinAddr: 0x100016DE8, symSize: 0x5B8 }
  - { offset: 0x1B6FF, size: 0x8, addend: 0x0, symName: __ZNSt3__16__treeINS_12basic_stringIcNS_11char_traitsIcEENS_9allocatorIcEEEENS_4lessIS6_EENS4_IS6_EEE16__insert_node_atEPNS_15__tree_end_nodeIPNS_16__tree_node_baseIPvEEEERSF_SF_, symObjAddr: 0x1500C, symBinAddr: 0x1000173A0, symSize: 0x720 }
  - { offset: 0x1B754, size: 0x8, addend: 0x0, symName: __ZNKSt3__110unique_ptrINS_11__tree_nodeINS_12basic_stringIcNS_11char_traitsIcEENS_9allocatorIcEEEEPvEENS_22__tree_node_destructorINS5_IS9_EEEEE3getB8ne180100Ev, symObjAddr: 0x1572C, symBinAddr: 0x100017AC0, symSize: 0x10C }
  - { offset: 0x1B77A, size: 0x8, addend: 0x0, symName: __ZNSt3__110unique_ptrINS_11__tree_nodeINS_12basic_stringIcNS_11char_traitsIcEENS_9allocatorIcEEEEPvEENS_22__tree_node_destructorINS5_IS9_EEEEE7releaseB8ne180100Ev, symObjAddr: 0x15838, symBinAddr: 0x100017BCC, symSize: 0x1BC }
  - { offset: 0x1B7AF, size: 0x8, addend: 0x0, symName: __ZNSt3__110unique_ptrINS_11__tree_nodeINS_12basic_stringIcNS_11char_traitsIcEENS_9allocatorIcEEEEPvEENS_22__tree_node_destructorINS5_IS9_EEEEED1B8ne180100Ev, symObjAddr: 0x159F4, symBinAddr: 0x100017D88, symSize: 0x64 }
  - { offset: 0x1B7D9, size: 0x8, addend: 0x0, symName: __ZNSt3__115__tree_iteratorINS_12basic_stringIcNS_11char_traitsIcEENS_9allocatorIcEEEEPNS_11__tree_nodeIS6_PvEElEC1B8ne180100ESA_, symObjAddr: 0x15A58, symBinAddr: 0x100017DEC, symSize: 0x6C }
  - { offset: 0x1B818, size: 0x8, addend: 0x0, symName: __ZNSt3__14pairINS_15__tree_iteratorINS_12basic_stringIcNS_11char_traitsIcEENS_9allocatorIcEEEEPNS_11__tree_nodeIS7_PvEElEEbEC1B8ne180100ISC_RbTnNS_9enable_ifIXclsr10_CheckArgsE17__enable_implicitIT_T0_EEEiE4typeELi0EEEOSH_OSI_, symObjAddr: 0x15AC4, symBinAddr: 0x100017E58, symSize: 0x74 }
  - { offset: 0x1B876, size: 0x8, addend: 0x0, symName: __ZNKSt3__16__treeINS_12basic_stringIcNS_11char_traitsIcEENS_9allocatorIcEEEENS_4lessIS6_EENS4_IS6_EEE10__root_ptrB8ne180100Ev, symObjAddr: 0x15B38, symBinAddr: 0x100017ECC, symSize: 0x94 }
  - { offset: 0x1B89C, size: 0x8, addend: 0x0, symName: __ZNSt3__16__treeINS_12basic_stringIcNS_11char_traitsIcEENS_9allocatorIcEEEENS_4lessIS6_EENS4_IS6_EEE10value_compB8ne180100Ev, symObjAddr: 0x15BCC, symBinAddr: 0x100017F60, symSize: 0xC4 }
  - { offset: 0x1B8C2, size: 0x8, addend: 0x0, symName: __ZNKSt3__14lessINS_12basic_stringIcNS_11char_traitsIcEENS_9allocatorIcEEEEEclB8ne180100ERKS6_S9_, symObjAddr: 0x15C90, symBinAddr: 0x100018024, symSize: 0x260 }
  - { offset: 0x1B909, size: 0x8, addend: 0x0, symName: __ZNSt3__117__compressed_pairImNS_4lessINS_12basic_stringIcNS_11char_traitsIcEENS_9allocatorIcEEEEEEE6secondB8ne180100Ev, symObjAddr: 0x15EF0, symBinAddr: 0x100018284, symSize: 0xC4 }
  - { offset: 0x1B92F, size: 0x8, addend: 0x0, symName: __ZNSt3__122__compressed_pair_elemINS_4lessINS_12basic_stringIcNS_11char_traitsIcEENS_9allocatorIcEEEEEELi1ELb1EE5__getB8ne180100Ev, symObjAddr: 0x15FB4, symBinAddr: 0x100018348, symSize: 0x6C }
  - { offset: 0x1B965, size: 0x8, addend: 0x0, symName: __ZNSt3__120_CmpUnspecifiedParamC1B8ne180100EMS0_i, symObjAddr: 0x160F4, symBinAddr: 0x100018488, symSize: 0x60 }
  - { offset: 0x1B999, size: 0x8, addend: 0x0, symName: __ZNSt3__120_CmpUnspecifiedParamC2B8ne180100EMS0_i, symObjAddr: 0x16348, symBinAddr: 0x1000186DC, symSize: 0x54 }
  - { offset: 0x1B9CD, size: 0x8, addend: 0x0, symName: __ZNSt3__116allocator_traitsINS_9allocatorINS_11__tree_nodeINS_12basic_stringIcNS_11char_traitsIcEENS1_IcEEEEPvEEEEE8allocateB8ne180100ERSA_m, symObjAddr: 0x1639C, symBinAddr: 0x100018730, symSize: 0x2C }
  - { offset: 0x1BA00, size: 0x8, addend: 0x0, symName: __ZNSt3__122__tree_node_destructorINS_9allocatorINS_11__tree_nodeINS_12basic_stringIcNS_11char_traitsIcEENS1_IcEEEEPvEEEEEC1B8ne180100ERSA_b, symObjAddr: 0x163C8, symBinAddr: 0x10001875C, symSize: 0xA8 }
  - { offset: 0x1BA4E, size: 0x8, addend: 0x0, symName: __ZNSt3__110unique_ptrINS_11__tree_nodeINS_12basic_stringIcNS_11char_traitsIcEENS_9allocatorIcEEEEPvEENS_22__tree_node_destructorINS5_IS9_EEEEEC1B8ne180100ILb1EvEEPS9_NS_16__dependent_typeINS_27__unique_ptr_deleter_sfinaeISC_EEXT_EE20__good_rval_ref_typeE, symObjAddr: 0x16470, symBinAddr: 0x100018804, symSize: 0x7C }
  - { offset: 0x1BA9F, size: 0x8, addend: 0x0, symName: __ZNSt3__116allocator_traitsINS_9allocatorINS_11__tree_nodeINS_12basic_stringIcNS_11char_traitsIcEENS1_IcEEEEPvEEEEE9constructB8ne180100IS7_JRKS7_EvvEEvRSA_PT_DpOT0_, symObjAddr: 0x164EC, symBinAddr: 0x100018880, symSize: 0x70 }
  - { offset: 0x1BAF4, size: 0x8, addend: 0x0, symName: __ZNKSt3__110unique_ptrINS_11__tree_nodeINS_12basic_stringIcNS_11char_traitsIcEENS_9allocatorIcEEEEPvEENS_22__tree_node_destructorINS5_IS9_EEEEEptB8ne180100Ev, symObjAddr: 0x1655C, symBinAddr: 0x1000188F0, symSize: 0x10C }
  - { offset: 0x1BB1A, size: 0x8, addend: 0x0, symName: __ZNSt3__110unique_ptrINS_11__tree_nodeINS_12basic_stringIcNS_11char_traitsIcEENS_9allocatorIcEEEEPvEENS_22__tree_node_destructorINS5_IS9_EEEEE11get_deleterB8ne180100Ev, symObjAddr: 0x16668, symBinAddr: 0x1000189FC, symSize: 0xC8 }
  - { offset: 0x1BB40, size: 0x8, addend: 0x0, symName: __ZNSt3__19allocatorINS_11__tree_nodeINS_12basic_stringIcNS_11char_traitsIcEENS0_IcEEEEPvEEE8allocateB8ne180100Em, symObjAddr: 0x16730, symBinAddr: 0x100018AC4, symSize: 0xC4 }
  - { offset: 0x1BB7F, size: 0x8, addend: 0x0, symName: __ZNSt3__116allocator_traitsINS_9allocatorINS_11__tree_nodeINS_12basic_stringIcNS_11char_traitsIcEENS1_IcEEEEPvEEEEE8max_sizeB8ne180100ISA_vvEEmRKSA_, symObjAddr: 0x167F4, symBinAddr: 0x100018B88, symSize: 0x5C }
  - { offset: 0x1BBAB, size: 0x8, addend: 0x0, symName: __ZNSt3__122__tree_node_destructorINS_9allocatorINS_11__tree_nodeINS_12basic_stringIcNS_11char_traitsIcEENS1_IcEEEEPvEEEEEC2B8ne180100ERSA_b, symObjAddr: 0x169C0, symBinAddr: 0x100018D54, symSize: 0x168 }
  - { offset: 0x1BBF3, size: 0x8, addend: 0x0, symName: __ZNSt3__110unique_ptrINS_11__tree_nodeINS_12basic_stringIcNS_11char_traitsIcEENS_9allocatorIcEEEEPvEENS_22__tree_node_destructorINS5_IS9_EEEEEC2B8ne180100ILb1EvEEPS9_NS_16__dependent_typeINS_27__unique_ptr_deleter_sfinaeISC_EEXT_EE20__good_rval_ref_typeE, symObjAddr: 0x16B28, symBinAddr: 0x100018EBC, symSize: 0x244 }
  - { offset: 0x1BC4A, size: 0x8, addend: 0x0, symName: __ZNSt3__117__compressed_pairIPNS_11__tree_nodeINS_12basic_stringIcNS_11char_traitsIcEENS_9allocatorIcEEEEPvEENS_22__tree_node_destructorINS5_IS9_EEEEEC1B8ne180100IRSA_SD_EEOT_OT0_, symObjAddr: 0x16D6C, symBinAddr: 0x100019100, symSize: 0x74 }
  - { offset: 0x1BCA2, size: 0x8, addend: 0x0, symName: __ZNSt3__117__compressed_pairIPNS_11__tree_nodeINS_12basic_stringIcNS_11char_traitsIcEENS_9allocatorIcEEEEPvEENS_22__tree_node_destructorINS5_IS9_EEEEEC2B8ne180100IRSA_SD_EEOT_OT0_, symObjAddr: 0x16DE0, symBinAddr: 0x100019174, symSize: 0x168 }
  - { offset: 0x1BCFA, size: 0x8, addend: 0x0, symName: __ZNSt3__122__compressed_pair_elemIPNS_11__tree_nodeINS_12basic_stringIcNS_11char_traitsIcEENS_9allocatorIcEEEEPvEELi0ELb0EEC2B8ne180100IRSA_vEEOT_, symObjAddr: 0x16F48, symBinAddr: 0x1000192DC, symSize: 0x124 }
  - { offset: 0x1BD3C, size: 0x8, addend: 0x0, symName: __ZNSt3__122__compressed_pair_elemINS_22__tree_node_destructorINS_9allocatorINS_11__tree_nodeINS_12basic_stringIcNS_11char_traitsIcEENS2_IcEEEEPvEEEEEELi1ELb0EEC2B8ne180100ISC_vEEOT_, symObjAddr: 0x1706C, symBinAddr: 0x100019400, symSize: 0x78 }
  - { offset: 0x1BD7E, size: 0x8, addend: 0x0, symName: __ZNKSt3__117__compressed_pairIPNS_11__tree_nodeINS_12basic_stringIcNS_11char_traitsIcEENS_9allocatorIcEEEEPvEENS_22__tree_node_destructorINS5_IS9_EEEEE5firstB8ne180100Ev, symObjAddr: 0x17238, symBinAddr: 0x1000195CC, symSize: 0xEC }
  - { offset: 0x1BDA4, size: 0x8, addend: 0x0, symName: __ZNKSt3__122__compressed_pair_elemIPNS_11__tree_nodeINS_12basic_stringIcNS_11char_traitsIcEENS_9allocatorIcEEEEPvEELi0ELb0EE5__getB8ne180100Ev, symObjAddr: 0x17324, symBinAddr: 0x1000196B8, symSize: 0x8C }
  - { offset: 0x1BDCA, size: 0x8, addend: 0x0, symName: __ZNSt3__117__compressed_pairIPNS_11__tree_nodeINS_12basic_stringIcNS_11char_traitsIcEENS_9allocatorIcEEEEPvEENS_22__tree_node_destructorINS5_IS9_EEEEE6secondB8ne180100Ev, symObjAddr: 0x173B0, symBinAddr: 0x100019744, symSize: 0xFC }
  - { offset: 0x1BDF0, size: 0x8, addend: 0x0, symName: __ZNSt3__122__compressed_pair_elemINS_22__tree_node_destructorINS_9allocatorINS_11__tree_nodeINS_12basic_stringIcNS_11char_traitsIcEENS2_IcEEEEPvEEEEEELi1ELb0EE5__getB8ne180100Ev, symObjAddr: 0x174AC, symBinAddr: 0x100019840, symSize: 0x94 }
  - { offset: 0x1BE16, size: 0x8, addend: 0x0, symName: __ZNSt3__16__treeINS_12basic_stringIcNS_11char_traitsIcEENS_9allocatorIcEEEENS_4lessIS6_EENS4_IS6_EEE4sizeB8ne180100Ev, symObjAddr: 0x1899C, symBinAddr: 0x10001AD30, symSize: 0xD8 }
  - { offset: 0x1BE3C, size: 0x8, addend: 0x0, symName: __ZNKSt3__116__tree_node_baseIPvE15__parent_unsafeB8ne180100Ev, symObjAddr: 0x18A74, symBinAddr: 0x10001AE08, symSize: 0xE0 }
  - { offset: 0x1BE62, size: 0x8, addend: 0x0, symName: __ZNSt3__116__tree_node_baseIPvE12__set_parentB8ne180100EPS2_, symObjAddr: 0x19FD8, symBinAddr: 0x10001C36C, symSize: 0xE0 }
  - { offset: 0x1BE97, size: 0x8, addend: 0x0, symName: __ZNSt3__117__compressed_pairImNS_4lessINS_12basic_stringIcNS_11char_traitsIcEENS_9allocatorIcEEEEEEE5firstB8ne180100Ev, symObjAddr: 0x1A0B8, symBinAddr: 0x10001C44C, symSize: 0xEC }
  - { offset: 0x1BEBD, size: 0x8, addend: 0x0, symName: __ZNSt3__122__compressed_pair_elemImLi0ELb0EE5__getB8ne180100Ev, symObjAddr: 0x1A1A4, symBinAddr: 0x10001C538, symSize: 0x8C }
  - { offset: 0x1BEE3, size: 0x8, addend: 0x0, symName: __ZNSt3__117__compressed_pairIPNS_11__tree_nodeINS_12basic_stringIcNS_11char_traitsIcEENS_9allocatorIcEEEEPvEENS_22__tree_node_destructorINS5_IS9_EEEEE5firstB8ne180100Ev, symObjAddr: 0x1A230, symBinAddr: 0x10001C5C4, symSize: 0xEC }
  - { offset: 0x1BF09, size: 0x8, addend: 0x0, symName: __ZNSt3__122__compressed_pair_elemIPNS_11__tree_nodeINS_12basic_stringIcNS_11char_traitsIcEENS_9allocatorIcEEEEPvEELi0ELb0EE5__getB8ne180100Ev, symObjAddr: 0x1A31C, symBinAddr: 0x10001C6B0, symSize: 0x8C }
  - { offset: 0x1BF2F, size: 0x8, addend: 0x0, symName: __ZNSt3__110unique_ptrINS_11__tree_nodeINS_12basic_stringIcNS_11char_traitsIcEENS_9allocatorIcEEEEPvEENS_22__tree_node_destructorINS5_IS9_EEEEED2B8ne180100Ev, symObjAddr: 0x1A3A8, symBinAddr: 0x10001C73C, symSize: 0x68 }
  - { offset: 0x1BF59, size: 0x8, addend: 0x0, symName: __ZNSt3__110unique_ptrINS_11__tree_nodeINS_12basic_stringIcNS_11char_traitsIcEENS_9allocatorIcEEEEPvEENS_22__tree_node_destructorINS5_IS9_EEEEE5resetB8ne180100EPS9_, symObjAddr: 0x1A410, symBinAddr: 0x10001C7A4, symSize: 0x254 }
  - { offset: 0x1BF9D, size: 0x8, addend: 0x0, symName: __ZNSt3__122__tree_node_destructorINS_9allocatorINS_11__tree_nodeINS_12basic_stringIcNS_11char_traitsIcEENS1_IcEEEEPvEEEEEclB8ne180100EPS9_, symObjAddr: 0x1A664, symBinAddr: 0x10001C9F8, symSize: 0x25C }
  - { offset: 0x1BFD2, size: 0x8, addend: 0x0, symName: __ZNSt3__115__tree_iteratorINS_12basic_stringIcNS_11char_traitsIcEENS_9allocatorIcEEEEPNS_11__tree_nodeIS6_PvEElEC2B8ne180100ESA_, symObjAddr: 0x1A8C0, symBinAddr: 0x10001CC54, symSize: 0xE8 }
  - { offset: 0x1C00B, size: 0x8, addend: 0x0, symName: __ZNSt3__14pairINS_15__tree_iteratorINS_12basic_stringIcNS_11char_traitsIcEENS_9allocatorIcEEEEPNS_11__tree_nodeIS7_PvEElEEbEC2B8ne180100ISC_RbTnNS_9enable_ifIXclsr10_CheckArgsE17__enable_implicitIT_T0_EEEiE4typeELi0EEEOSH_OSI_, symObjAddr: 0x1A9A8, symBinAddr: 0x10001CD3C, symSize: 0x194 }
  - { offset: 0x1C069, size: 0x8, addend: 0x0, symName: __ZNSt3__14pairINS_21__tree_const_iteratorINS_12basic_stringIcNS_11char_traitsIcEENS_9allocatorIcEEEEPNS_11__tree_nodeIS7_PvEElEEbEC2B8ne180100INS_15__tree_iteratorIS7_SB_lEEbTnNS_9enable_ifIXclsr10_CheckArgsE17__enable_implicitIT_T0_EEEiE4typeELi0EEEONS0_ISI_SJ_EE, symObjAddr: 0x1AB3C, symBinAddr: 0x10001CED0, symSize: 0x1A4 }
  - { offset: 0x1C0B9, size: 0x8, addend: 0x0, symName: __ZNSt3__121__tree_const_iteratorINS_12basic_stringIcNS_11char_traitsIcEENS_9allocatorIcEEEEPNS_11__tree_nodeIS6_PvEElEC1B8ne180100ENS_15__tree_iteratorIS6_SA_lEE, symObjAddr: 0x1ACE0, symBinAddr: 0x10001D074, symSize: 0x6C }
  - { offset: 0x1C0F2, size: 0x8, addend: 0x0, symName: __ZNSt3__121__tree_const_iteratorINS_12basic_stringIcNS_11char_traitsIcEENS_9allocatorIcEEEEPNS_11__tree_nodeIS6_PvEElEC2B8ne180100ENS_15__tree_iteratorIS6_SA_lEE, symObjAddr: 0x1AD4C, symBinAddr: 0x10001D0E0, symSize: 0xB8 }
  - { offset: 0x1C12B, size: 0x8, addend: 0x0, symName: __ZNKSt3__113basic_filebufIcNS_11char_traitsIcEEE7is_openEv, symObjAddr: 0x1AE04, symBinAddr: 0x10001D198, symSize: 0x134 }
  - { offset: 0x1C153, size: 0x8, addend: 0x0, symName: __ZNKSt3__19basic_iosIcNS_11char_traitsIcEEE5widenB8ne180100Ec, symObjAddr: 0x1BC90, symBinAddr: 0x10001E024, symSize: 0x430 }
  - { offset: 0x1C18C, size: 0x8, addend: 0x0, symName: __ZNSt3__111char_traitsIcE2eqEcc, symObjAddr: 0x1C0C0, symBinAddr: 0x10001E454, symSize: 0x24 }
  - { offset: 0x1C1BD, size: 0x8, addend: 0x0, symName: __ZNKSt3__15ctypeIcE5widenB8ne180100Ec, symObjAddr: 0x1C0E4, symBinAddr: 0x10001E478, symSize: 0x170 }
  - { offset: 0x1C1F2, size: 0x8, addend: 0x0, symName: __ZNSt3__16__treeINS_12basic_stringIcNS_11char_traitsIcEENS_9allocatorIcEEEENS_4lessIS6_EENS4_IS6_EEEaSEOSA_, symObjAddr: 0x1C254, symBinAddr: 0x10001E5E8, symSize: 0xD4 }
  - { offset: 0x1C229, size: 0x8, addend: 0x0, symName: __ZNSt3__16__treeINS_12basic_stringIcNS_11char_traitsIcEENS_9allocatorIcEEEENS_4lessIS6_EENS4_IS6_EEE13__move_assignERSA_NS_17integral_constantIbLb1EEE, symObjAddr: 0x1C328, symBinAddr: 0x10001E6BC, symSize: 0x7C8 }
  - { offset: 0x1C26C, size: 0x8, addend: 0x0, symName: __ZNSt3__16__treeINS_12basic_stringIcNS_11char_traitsIcEENS_9allocatorIcEEEENS_4lessIS6_EENS4_IS6_EEE19__move_assign_allocB8ne180100ERSA_, symObjAddr: 0x1CAF0, symBinAddr: 0x10001EE84, symSize: 0x9C }
  - { offset: 0x1C2A1, size: 0x8, addend: 0x0, symName: __ZNSt3__16__treeINS_12basic_stringIcNS_11char_traitsIcEENS_9allocatorIcEEEENS_4lessIS6_EENS4_IS6_EEE19__move_assign_allocB8ne180100ERSA_NS_17integral_constantIbLb1EEE, symObjAddr: 0x1CB8C, symBinAddr: 0x10001EF20, symSize: 0x90 }
  - { offset: 0x1C2E2, size: 0x8, addend: 0x0, symName: __ZNSt3__16__treeINS_12basic_stringIcNS_11char_traitsIcEENS_9allocatorIcEEEENS_4lessIS6_EENS4_IS6_EEE5beginB8ne180100Ev, symObjAddr: 0x1CC1C, symBinAddr: 0x10001EFB0, symSize: 0x254 }
  - { offset: 0x1C309, size: 0x8, addend: 0x0, symName: __ZNSt3__115__tree_iteratorINS_12basic_stringIcNS_11char_traitsIcEENS_9allocatorIcEEEEPNS_11__tree_nodeIS6_PvEElEC1B8ne180100EPNS_15__tree_end_nodeIPNS_16__tree_node_baseIS8_EEEE, symObjAddr: 0x1CE70, symBinAddr: 0x10001F204, symSize: 0x6C }
  - { offset: 0x1C342, size: 0x8, addend: 0x0, symName: __ZNSt3__115__tree_iteratorINS_12basic_stringIcNS_11char_traitsIcEENS_9allocatorIcEEEEPNS_11__tree_nodeIS6_PvEElEC2B8ne180100EPNS_15__tree_end_nodeIPNS_16__tree_node_baseIS8_EEEE, symObjAddr: 0x1CEDC, symBinAddr: 0x10001F270, symSize: 0xB8 }
  - { offset: 0x1C37B, size: 0x8, addend: 0x0, symName: __ZNSt3__16__treeINS_12basic_stringIcNS_11char_traitsIcEENS_9allocatorIcEEEENS_4lessIS6_EENS4_IS6_EEE3endB8ne180100Ev, symObjAddr: 0x1CF94, symBinAddr: 0x10001F328, symSize: 0x1F4 }
  - { offset: 0x1C3A2, size: 0x8, addend: 0x0, symName: __ZNKSt3__121__tree_const_iteratorINS_12basic_stringIcNS_11char_traitsIcEENS_9allocatorIcEEEEPNS_11__tree_nodeIS6_PvEElE8__get_npB8ne180100Ev, symObjAddr: 0x1D778, symBinAddr: 0x10001FB0C, symSize: 0xD4 }
  - { offset: 0x1C3E0, size: 0x8, addend: 0x0, symName: __ZNSt3__16__treeINS_12__value_typeINS_12basic_stringIcNS_11char_traitsIcEENS_9allocatorIcEEEENS_3setIS7_NS_4lessIS7_EENS5_IS7_EEEEEENS_19__map_value_compareIS7_SD_SA_Lb1EEENS5_ISD_EEE25__emplace_unique_key_argsIS7_JRKNS_21piecewise_construct_tENS_5tupleIJRKS7_EEENSM_IJEEEEEENS_4pairINS_15__tree_iteratorISD_PNS_11__tree_nodeISD_PvEElEEbEERKT_DpOT0_, symObjAddr: 0x1D84C, symBinAddr: 0x10001FBE0, symSize: 0x5B4 }
  - { offset: 0x1C4C4, size: 0x8, addend: 0x0, symName: __ZNKSt3__115__tree_iteratorINS_12__value_typeINS_12basic_stringIcNS_11char_traitsIcEENS_9allocatorIcEEEENS_3setIS7_NS_4lessIS7_EENS5_IS7_EEEEEEPNS_11__tree_nodeISD_PvEElEptB8ne180100Ev, symObjAddr: 0x1DFF0, symBinAddr: 0x100020384, symSize: 0xDC }
  - { offset: 0x1C4EA, size: 0x8, addend: 0x0, symName: __ZNSt3__112__value_typeINS_12basic_stringIcNS_11char_traitsIcEENS_9allocatorIcEEEENS_3setIS6_NS_4lessIS6_EENS4_IS6_EEEEE11__get_valueB8ne180100Ev, symObjAddr: 0x1E0CC, symBinAddr: 0x100020460, symSize: 0x94 }
  - { offset: 0x1C510, size: 0x8, addend: 0x0, symName: __ZNSt3__16__treeINS_12__value_typeINS_12basic_stringIcNS_11char_traitsIcEENS_9allocatorIcEEEENS_3setIS7_NS_4lessIS7_EENS5_IS7_EEEEEENS_19__map_value_compareIS7_SD_SA_Lb1EEENS5_ISD_EEE12__find_equalIS7_EERPNS_16__tree_node_baseIPvEERPNS_15__tree_end_nodeISM_EERKT_, symObjAddr: 0x1E160, symBinAddr: 0x1000204F4, symSize: 0xB50 }
  - { offset: 0x1C57B, size: 0x8, addend: 0x0, symName: __ZNSt3__16__treeINS_12__value_typeINS_12basic_stringIcNS_11char_traitsIcEENS_9allocatorIcEEEENS_3setIS7_NS_4lessIS7_EENS5_IS7_EEEEEENS_19__map_value_compareIS7_SD_SA_Lb1EEENS5_ISD_EEE16__construct_nodeIJRKNS_21piecewise_construct_tENS_5tupleIJRKS7_EEENSM_IJEEEEEENS_10unique_ptrINS_11__tree_nodeISD_PvEENS_22__tree_node_destructorINS5_ISU_EEEEEEDpOT_, symObjAddr: 0x1ECB0, symBinAddr: 0x100021044, symSize: 0x614 }
  - { offset: 0x1C608, size: 0x8, addend: 0x0, symName: __ZNSt3__16__treeINS_12__value_typeINS_12basic_stringIcNS_11char_traitsIcEENS_9allocatorIcEEEENS_3setIS7_NS_4lessIS7_EENS5_IS7_EEEEEENS_19__map_value_compareIS7_SD_SA_Lb1EEENS5_ISD_EEE16__insert_node_atEPNS_15__tree_end_nodeIPNS_16__tree_node_baseIPvEEEERSM_SM_, symObjAddr: 0x1F2C4, symBinAddr: 0x100021658, symSize: 0x720 }
  - { offset: 0x1C65D, size: 0x8, addend: 0x0, symName: __ZNKSt3__110unique_ptrINS_11__tree_nodeINS_12__value_typeINS_12basic_stringIcNS_11char_traitsIcEENS_9allocatorIcEEEENS_3setIS8_NS_4lessIS8_EENS6_IS8_EEEEEEPvEENS_22__tree_node_destructorINS6_ISG_EEEEE3getB8ne180100Ev, symObjAddr: 0x1F9E4, symBinAddr: 0x100021D78, symSize: 0x10C }
  - { offset: 0x1C683, size: 0x8, addend: 0x0, symName: __ZNSt3__110unique_ptrINS_11__tree_nodeINS_12__value_typeINS_12basic_stringIcNS_11char_traitsIcEENS_9allocatorIcEEEENS_3setIS8_NS_4lessIS8_EENS6_IS8_EEEEEEPvEENS_22__tree_node_destructorINS6_ISG_EEEEE7releaseB8ne180100Ev, symObjAddr: 0x1FAF0, symBinAddr: 0x100021E84, symSize: 0x1BC }
  - { offset: 0x1C6B8, size: 0x8, addend: 0x0, symName: __ZNSt3__110unique_ptrINS_11__tree_nodeINS_12__value_typeINS_12basic_stringIcNS_11char_traitsIcEENS_9allocatorIcEEEENS_3setIS8_NS_4lessIS8_EENS6_IS8_EEEEEEPvEENS_22__tree_node_destructorINS6_ISG_EEEEED1B8ne180100Ev, symObjAddr: 0x1FCAC, symBinAddr: 0x100022040, symSize: 0x64 }
  - { offset: 0x1C6E2, size: 0x8, addend: 0x0, symName: __ZNSt3__115__tree_iteratorINS_12__value_typeINS_12basic_stringIcNS_11char_traitsIcEENS_9allocatorIcEEEENS_3setIS7_NS_4lessIS7_EENS5_IS7_EEEEEEPNS_11__tree_nodeISD_PvEElEC1B8ne180100ESH_, symObjAddr: 0x1FD10, symBinAddr: 0x1000220A4, symSize: 0x6C }
  - { offset: 0x1C721, size: 0x8, addend: 0x0, symName: __ZNSt3__14pairINS_15__tree_iteratorINS_12__value_typeINS_12basic_stringIcNS_11char_traitsIcEENS_9allocatorIcEEEENS_3setIS8_NS_4lessIS8_EENS6_IS8_EEEEEEPNS_11__tree_nodeISE_PvEElEEbEC1B8ne180100ISJ_RbTnNS_9enable_ifIXclsr10_CheckArgsE17__enable_implicitIT_T0_EEEiE4typeELi0EEEOSO_OSP_, symObjAddr: 0x1FD7C, symBinAddr: 0x100022110, symSize: 0x74 }
  - { offset: 0x1C77F, size: 0x8, addend: 0x0, symName: __ZNKSt3__16__treeINS_12__value_typeINS_12basic_stringIcNS_11char_traitsIcEENS_9allocatorIcEEEENS_3setIS7_NS_4lessIS7_EENS5_IS7_EEEEEENS_19__map_value_compareIS7_SD_SA_Lb1EEENS5_ISD_EEE6__rootB8ne180100Ev, symObjAddr: 0x1FDF0, symBinAddr: 0x100022184, symSize: 0x14C }
  - { offset: 0x1C7A5, size: 0x8, addend: 0x0, symName: __ZNKSt3__16__treeINS_12__value_typeINS_12basic_stringIcNS_11char_traitsIcEENS_9allocatorIcEEEENS_3setIS7_NS_4lessIS7_EENS5_IS7_EEEEEENS_19__map_value_compareIS7_SD_SA_Lb1EEENS5_ISD_EEE10__root_ptrB8ne180100Ev, symObjAddr: 0x1FF3C, symBinAddr: 0x1000222D0, symSize: 0x94 }
  - { offset: 0x1C7CB, size: 0x8, addend: 0x0, symName: __ZNSt3__16__treeINS_12__value_typeINS_12basic_stringIcNS_11char_traitsIcEENS_9allocatorIcEEEENS_3setIS7_NS_4lessIS7_EENS5_IS7_EEEEEENS_19__map_value_compareIS7_SD_SA_Lb1EEENS5_ISD_EEE10value_compB8ne180100Ev, symObjAddr: 0x1FFD0, symBinAddr: 0x100022364, symSize: 0xC4 }
  - { offset: 0x1C7F1, size: 0x8, addend: 0x0, symName: __ZNKSt3__119__map_value_compareINS_12basic_stringIcNS_11char_traitsIcEENS_9allocatorIcEEEENS_12__value_typeIS6_NS_3setIS6_NS_4lessIS6_EENS4_IS6_EEEEEESA_Lb1EEclB8ne180100ERKS6_RKSD_, symObjAddr: 0x20094, symBinAddr: 0x100022428, symSize: 0x148 }
  - { offset: 0x1C835, size: 0x8, addend: 0x0, symName: __ZNKSt3__119__map_value_compareINS_12basic_stringIcNS_11char_traitsIcEENS_9allocatorIcEEEENS_12__value_typeIS6_NS_3setIS6_NS_4lessIS6_EENS4_IS6_EEEEEESA_Lb1EEclB8ne180100ERKSD_RKS6_, symObjAddr: 0x201DC, symBinAddr: 0x100022570, symSize: 0x148 }
  - { offset: 0x1C879, size: 0x8, addend: 0x0, symName: __ZNSt3__16__treeINS_12__value_typeINS_12basic_stringIcNS_11char_traitsIcEENS_9allocatorIcEEEENS_3setIS7_NS_4lessIS7_EENS5_IS7_EEEEEENS_19__map_value_compareIS7_SD_SA_Lb1EEENS5_ISD_EEE10__end_nodeB8ne180100Ev, symObjAddr: 0x20324, symBinAddr: 0x1000226B8, symSize: 0xDC }
  - { offset: 0x1C89F, size: 0x8, addend: 0x0, symName: __ZNKSt3__16__treeINS_12__value_typeINS_12basic_stringIcNS_11char_traitsIcEENS_9allocatorIcEEEENS_3setIS7_NS_4lessIS7_EENS5_IS7_EEEEEENS_19__map_value_compareIS7_SD_SA_Lb1EEENS5_ISD_EEE10__end_nodeB8ne180100Ev, symObjAddr: 0x20400, symBinAddr: 0x100022794, symSize: 0xDC }
  - { offset: 0x1C8C5, size: 0x8, addend: 0x0, symName: __ZNKSt3__117__compressed_pairINS_15__tree_end_nodeIPNS_16__tree_node_baseIPvEEEENS_9allocatorINS_11__tree_nodeINS_12__value_typeINS_12basic_stringIcNS_11char_traitsIcEENS7_IcEEEENS_3setISE_NS_4lessISE_EENS7_ISE_EEEEEES3_EEEEE5firstB8ne180100Ev, symObjAddr: 0x204DC, symBinAddr: 0x100022870, symSize: 0xEC }
  - { offset: 0x1C8EB, size: 0x8, addend: 0x0, symName: __ZNSt3__117__compressed_pairImNS_19__map_value_compareINS_12basic_stringIcNS_11char_traitsIcEENS_9allocatorIcEEEENS_12__value_typeIS7_NS_3setIS7_NS_4lessIS7_EENS5_IS7_EEEEEESB_Lb1EEEE6secondB8ne180100Ev, symObjAddr: 0x205C8, symBinAddr: 0x10002295C, symSize: 0xC4 }
  - { offset: 0x1C911, size: 0x8, addend: 0x0, symName: __ZNSt3__122__compressed_pair_elemINS_19__map_value_compareINS_12basic_stringIcNS_11char_traitsIcEENS_9allocatorIcEEEENS_12__value_typeIS7_NS_3setIS7_NS_4lessIS7_EENS5_IS7_EEEEEESB_Lb1EEELi1ELb1EE5__getB8ne180100Ev, symObjAddr: 0x2068C, symBinAddr: 0x100022A20, symSize: 0x64 }
  - { offset: 0x1C937, size: 0x8, addend: 0x0, symName: __ZNKSt3__112__value_typeINS_12basic_stringIcNS_11char_traitsIcEENS_9allocatorIcEEEENS_3setIS6_NS_4lessIS6_EENS4_IS6_EEEEE11__get_valueB8ne180100Ev, symObjAddr: 0x206F0, symBinAddr: 0x100022A84, symSize: 0x9C }
  - { offset: 0x1C95D, size: 0x8, addend: 0x0, symName: __ZNSt3__117__compressed_pairINS_15__tree_end_nodeIPNS_16__tree_node_baseIPvEEEENS_9allocatorINS_11__tree_nodeINS_12__value_typeINS_12basic_stringIcNS_11char_traitsIcEENS7_IcEEEENS_3setISE_NS_4lessISE_EENS7_ISE_EEEEEES3_EEEEE5firstB8ne180100Ev, symObjAddr: 0x207CC, symBinAddr: 0x100022B60, symSize: 0xEC }
  - { offset: 0x1C983, size: 0x8, addend: 0x0, symName: __ZNSt3__16__treeINS_12__value_typeINS_12basic_stringIcNS_11char_traitsIcEENS_9allocatorIcEEEENS_3setIS7_NS_4lessIS7_EENS5_IS7_EEEEEENS_19__map_value_compareIS7_SD_SA_Lb1EEENS5_ISD_EEE12__node_allocB8ne180100Ev, symObjAddr: 0x208B8, symBinAddr: 0x100022C4C, symSize: 0xCC }
  - { offset: 0x1C9A9, size: 0x8, addend: 0x0, symName: __ZNSt3__116allocator_traitsINS_9allocatorINS_11__tree_nodeINS_12__value_typeINS_12basic_stringIcNS_11char_traitsIcEENS1_IcEEEENS_3setIS8_NS_4lessIS8_EENS1_IS8_EEEEEEPvEEEEE8allocateB8ne180100ERSH_m, symObjAddr: 0x20984, symBinAddr: 0x100022D18, symSize: 0x2C }
  - { offset: 0x1C9DC, size: 0x8, addend: 0x0, symName: __ZNSt3__122__tree_node_destructorINS_9allocatorINS_11__tree_nodeINS_12__value_typeINS_12basic_stringIcNS_11char_traitsIcEENS1_IcEEEENS_3setIS8_NS_4lessIS8_EENS1_IS8_EEEEEEPvEEEEEC1B8ne180100ERSH_b, symObjAddr: 0x209B0, symBinAddr: 0x100022D44, symSize: 0xA8 }
  - { offset: 0x1CA2A, size: 0x8, addend: 0x0, symName: __ZNSt3__110unique_ptrINS_11__tree_nodeINS_12__value_typeINS_12basic_stringIcNS_11char_traitsIcEENS_9allocatorIcEEEENS_3setIS8_NS_4lessIS8_EENS6_IS8_EEEEEEPvEENS_22__tree_node_destructorINS6_ISG_EEEEEC1B8ne180100ILb1EvEEPSG_NS_16__dependent_typeINS_27__unique_ptr_deleter_sfinaeISJ_EEXT_EE20__good_rval_ref_typeE, symObjAddr: 0x20A58, symBinAddr: 0x100022DEC, symSize: 0x7C }
  - { offset: 0x1CA7B, size: 0x8, addend: 0x0, symName: __ZNSt3__116allocator_traitsINS_9allocatorINS_11__tree_nodeINS_12__value_typeINS_12basic_stringIcNS_11char_traitsIcEENS1_IcEEEENS_3setIS8_NS_4lessIS8_EENS1_IS8_EEEEEEPvEEEEE9constructB8ne180100INS_4pairIKS8_SD_EEJRKNS_21piecewise_construct_tENS_5tupleIJRSL_EEENSQ_IJEEEEvvEEvRSH_PT_DpOT0_, symObjAddr: 0x20AD4, symBinAddr: 0x100022E68, symSize: 0xD0 }
  - { offset: 0x1CAF8, size: 0x8, addend: 0x0, symName: __ZNSt3__122__tree_key_value_typesINS_12__value_typeINS_12basic_stringIcNS_11char_traitsIcEENS_9allocatorIcEEEENS_3setIS7_NS_4lessIS7_EENS5_IS7_EEEEEEE9__get_ptrB8ne180100ERSD_, symObjAddr: 0x20BA4, symBinAddr: 0x100022F38, symSize: 0x4C }
  - { offset: 0x1CB1C, size: 0x8, addend: 0x0, symName: __ZNKSt3__110unique_ptrINS_11__tree_nodeINS_12__value_typeINS_12basic_stringIcNS_11char_traitsIcEENS_9allocatorIcEEEENS_3setIS8_NS_4lessIS8_EENS6_IS8_EEEEEEPvEENS_22__tree_node_destructorINS6_ISG_EEEEEptB8ne180100Ev, symObjAddr: 0x20BF0, symBinAddr: 0x100022F84, symSize: 0x10C }
  - { offset: 0x1CB42, size: 0x8, addend: 0x0, symName: __ZNSt3__110unique_ptrINS_11__tree_nodeINS_12__value_typeINS_12basic_stringIcNS_11char_traitsIcEENS_9allocatorIcEEEENS_3setIS8_NS_4lessIS8_EENS6_IS8_EEEEEEPvEENS_22__tree_node_destructorINS6_ISG_EEEEE11get_deleterB8ne180100Ev, symObjAddr: 0x20CFC, symBinAddr: 0x100023090, symSize: 0xC8 }
  - { offset: 0x1CB68, size: 0x8, addend: 0x0, symName: __ZNSt3__117__compressed_pairINS_15__tree_end_nodeIPNS_16__tree_node_baseIPvEEEENS_9allocatorINS_11__tree_nodeINS_12__value_typeINS_12basic_stringIcNS_11char_traitsIcEENS7_IcEEEENS_3setISE_NS_4lessISE_EENS7_ISE_EEEEEES3_EEEEE6secondB8ne180100Ev, symObjAddr: 0x20DC4, symBinAddr: 0x100023158, symSize: 0xC4 }
  - { offset: 0x1CB8E, size: 0x8, addend: 0x0, symName: __ZNSt3__122__compressed_pair_elemINS_9allocatorINS_11__tree_nodeINS_12__value_typeINS_12basic_stringIcNS_11char_traitsIcEENS1_IcEEEENS_3setIS8_NS_4lessIS8_EENS1_IS8_EEEEEEPvEEEELi1ELb1EE5__getB8ne180100Ev, symObjAddr: 0x20E88, symBinAddr: 0x10002321C, symSize: 0x64 }
  - { offset: 0x1CBB4, size: 0x8, addend: 0x0, symName: __ZNSt3__19allocatorINS_11__tree_nodeINS_12__value_typeINS_12basic_stringIcNS_11char_traitsIcEENS0_IcEEEENS_3setIS7_NS_4lessIS7_EENS0_IS7_EEEEEEPvEEE8allocateB8ne180100Em, symObjAddr: 0x20EEC, symBinAddr: 0x100023280, symSize: 0xC4 }
  - { offset: 0x1CBF3, size: 0x8, addend: 0x0, symName: __ZNSt3__116allocator_traitsINS_9allocatorINS_11__tree_nodeINS_12__value_typeINS_12basic_stringIcNS_11char_traitsIcEENS1_IcEEEENS_3setIS8_NS_4lessIS8_EENS1_IS8_EEEEEEPvEEEEE8max_sizeB8ne180100ISH_vvEEmRKSH_, symObjAddr: 0x20FB0, symBinAddr: 0x100023344, symSize: 0x54 }
  - { offset: 0x1CC1F, size: 0x8, addend: 0x0, symName: __ZNSt3__122__tree_node_destructorINS_9allocatorINS_11__tree_nodeINS_12__value_typeINS_12basic_stringIcNS_11char_traitsIcEENS1_IcEEEENS_3setIS8_NS_4lessIS8_EENS1_IS8_EEEEEEPvEEEEEC2B8ne180100ERSH_b, symObjAddr: 0x21004, symBinAddr: 0x100023398, symSize: 0x168 }
  - { offset: 0x1CC67, size: 0x8, addend: 0x0, symName: __ZNSt3__110unique_ptrINS_11__tree_nodeINS_12__value_typeINS_12basic_stringIcNS_11char_traitsIcEENS_9allocatorIcEEEENS_3setIS8_NS_4lessIS8_EENS6_IS8_EEEEEEPvEENS_22__tree_node_destructorINS6_ISG_EEEEEC2B8ne180100ILb1EvEEPSG_NS_16__dependent_typeINS_27__unique_ptr_deleter_sfinaeISJ_EEXT_EE20__good_rval_ref_typeE, symObjAddr: 0x2116C, symBinAddr: 0x100023500, symSize: 0x244 }
  - { offset: 0x1CCBE, size: 0x8, addend: 0x0, symName: __ZNSt3__117__compressed_pairIPNS_11__tree_nodeINS_12__value_typeINS_12basic_stringIcNS_11char_traitsIcEENS_9allocatorIcEEEENS_3setIS8_NS_4lessIS8_EENS6_IS8_EEEEEEPvEENS_22__tree_node_destructorINS6_ISG_EEEEEC1B8ne180100IRSH_SK_EEOT_OT0_, symObjAddr: 0x213B0, symBinAddr: 0x100023744, symSize: 0x74 }
  - { offset: 0x1CD16, size: 0x8, addend: 0x0, symName: __ZNSt3__117__compressed_pairIPNS_11__tree_nodeINS_12__value_typeINS_12basic_stringIcNS_11char_traitsIcEENS_9allocatorIcEEEENS_3setIS8_NS_4lessIS8_EENS6_IS8_EEEEEEPvEENS_22__tree_node_destructorINS6_ISG_EEEEEC2B8ne180100IRSH_SK_EEOT_OT0_, symObjAddr: 0x21424, symBinAddr: 0x1000237B8, symSize: 0x168 }
  - { offset: 0x1CD6E, size: 0x8, addend: 0x0, symName: __ZNSt3__122__compressed_pair_elemIPNS_11__tree_nodeINS_12__value_typeINS_12basic_stringIcNS_11char_traitsIcEENS_9allocatorIcEEEENS_3setIS8_NS_4lessIS8_EENS6_IS8_EEEEEEPvEELi0ELb0EEC2B8ne180100IRSH_vEEOT_, symObjAddr: 0x2158C, symBinAddr: 0x100023920, symSize: 0x124 }
  - { offset: 0x1CDB0, size: 0x8, addend: 0x0, symName: __ZNSt3__122__compressed_pair_elemINS_22__tree_node_destructorINS_9allocatorINS_11__tree_nodeINS_12__value_typeINS_12basic_stringIcNS_11char_traitsIcEENS2_IcEEEENS_3setIS9_NS_4lessIS9_EENS2_IS9_EEEEEEPvEEEEEELi1ELb0EEC2B8ne180100ISJ_vEEOT_, symObjAddr: 0x216B0, symBinAddr: 0x100023A44, symSize: 0x78 }
  - { offset: 0x1CDF2, size: 0x8, addend: 0x0, symName: __ZNSt3__14pairIKNS_12basic_stringIcNS_11char_traitsIcEENS_9allocatorIcEEEENS_3setIS6_NS_4lessIS6_EENS4_IS6_EEEEEC1B8ne180100IJRS7_EJEEENS_21piecewise_construct_tENS_5tupleIJDpT_EEENSH_IJDpT0_EEE, symObjAddr: 0x218B4, symBinAddr: 0x100023C48, symSize: 0x224 }
  - { offset: 0x1CE63, size: 0x8, addend: 0x0, symName: __ZNSt3__14pairIKNS_12basic_stringIcNS_11char_traitsIcEENS_9allocatorIcEEEENS_3setIS6_NS_4lessIS6_EENS4_IS6_EEEEEC1B8ne180100IJRS7_EJEJLm0EETpTnmJEEENS_21piecewise_construct_tERNS_5tupleIJDpT_EEERNSH_IJDpT0_EEENS_15__tuple_indicesIJXspT1_EEEENSQ_IJXspT2_EEEE, symObjAddr: 0x21AD8, symBinAddr: 0x100023E6C, symSize: 0x74 }
  - { offset: 0x1CEF0, size: 0x8, addend: 0x0, symName: __ZNSt3__14pairIKNS_12basic_stringIcNS_11char_traitsIcEENS_9allocatorIcEEEENS_3setIS6_NS_4lessIS6_EENS4_IS6_EEEEEC2B8ne180100IJRS7_EJEJLm0EETpTnmJEEENS_21piecewise_construct_tERNS_5tupleIJDpT_EEERNSH_IJDpT0_EEENS_15__tuple_indicesIJXspT1_EEEENSQ_IJXspT2_EEEE, symObjAddr: 0x21B4C, symBinAddr: 0x100023EE0, symSize: 0xF8 }
  - { offset: 0x1CF7D, size: 0x8, addend: 0x0, symName: __ZNSt3__112__tuple_leafILm0ERKNS_12basic_stringIcNS_11char_traitsIcEENS_9allocatorIcEEEELb0EE3getB8ne180100Ev, symObjAddr: 0x21CFC, symBinAddr: 0x100024090, symSize: 0xD4 }
  - { offset: 0x1CFA3, size: 0x8, addend: 0x0, symName: __ZNKSt3__117__compressed_pairIPNS_11__tree_nodeINS_12__value_typeINS_12basic_stringIcNS_11char_traitsIcEENS_9allocatorIcEEEENS_3setIS8_NS_4lessIS8_EENS6_IS8_EEEEEEPvEENS_22__tree_node_destructorINS6_ISG_EEEEE5firstB8ne180100Ev, symObjAddr: 0x21DD0, symBinAddr: 0x100024164, symSize: 0xEC }
  - { offset: 0x1CFC9, size: 0x8, addend: 0x0, symName: __ZNKSt3__122__compressed_pair_elemIPNS_11__tree_nodeINS_12__value_typeINS_12basic_stringIcNS_11char_traitsIcEENS_9allocatorIcEEEENS_3setIS8_NS_4lessIS8_EENS6_IS8_EEEEEEPvEELi0ELb0EE5__getB8ne180100Ev, symObjAddr: 0x21EBC, symBinAddr: 0x100024250, symSize: 0x8C }
  - { offset: 0x1CFEF, size: 0x8, addend: 0x0, symName: __ZNSt3__117__compressed_pairIPNS_11__tree_nodeINS_12__value_typeINS_12basic_stringIcNS_11char_traitsIcEENS_9allocatorIcEEEENS_3setIS8_NS_4lessIS8_EENS6_IS8_EEEEEEPvEENS_22__tree_node_destructorINS6_ISG_EEEEE6secondB8ne180100Ev, symObjAddr: 0x21F48, symBinAddr: 0x1000242DC, symSize: 0xFC }
  - { offset: 0x1D015, size: 0x8, addend: 0x0, symName: __ZNSt3__122__compressed_pair_elemINS_22__tree_node_destructorINS_9allocatorINS_11__tree_nodeINS_12__value_typeINS_12basic_stringIcNS_11char_traitsIcEENS2_IcEEEENS_3setIS9_NS_4lessIS9_EENS2_IS9_EEEEEEPvEEEEEELi1ELb0EE5__getB8ne180100Ev, symObjAddr: 0x22044, symBinAddr: 0x1000243D8, symSize: 0x8C }
  - { offset: 0x1D03B, size: 0x8, addend: 0x0, symName: __ZNSt3__16__treeINS_12__value_typeINS_12basic_stringIcNS_11char_traitsIcEENS_9allocatorIcEEEENS_3setIS7_NS_4lessIS7_EENS5_IS7_EEEEEENS_19__map_value_compareIS7_SD_SA_Lb1EEENS5_ISD_EEE12__begin_nodeB8ne180100Ev, symObjAddr: 0x220D0, symBinAddr: 0x100024464, symSize: 0x8C }
  - { offset: 0x1D061, size: 0x8, addend: 0x0, symName: __ZNSt3__16__treeINS_12__value_typeINS_12basic_stringIcNS_11char_traitsIcEENS_9allocatorIcEEEENS_3setIS7_NS_4lessIS7_EENS5_IS7_EEEEEENS_19__map_value_compareIS7_SD_SA_Lb1EEENS5_ISD_EEE4sizeB8ne180100Ev, symObjAddr: 0x2215C, symBinAddr: 0x1000244F0, symSize: 0xD8 }
  - { offset: 0x1D087, size: 0x8, addend: 0x0, symName: __ZNSt3__117__compressed_pairImNS_19__map_value_compareINS_12basic_stringIcNS_11char_traitsIcEENS_9allocatorIcEEEENS_12__value_typeIS7_NS_3setIS7_NS_4lessIS7_EENS5_IS7_EEEEEESB_Lb1EEEE5firstB8ne180100Ev, symObjAddr: 0x22234, symBinAddr: 0x1000245C8, symSize: 0xEC }
  - { offset: 0x1D0AD, size: 0x8, addend: 0x0, symName: __ZNSt3__117__compressed_pairIPNS_11__tree_nodeINS_12__value_typeINS_12basic_stringIcNS_11char_traitsIcEENS_9allocatorIcEEEENS_3setIS8_NS_4lessIS8_EENS6_IS8_EEEEEEPvEENS_22__tree_node_destructorINS6_ISG_EEEEE5firstB8ne180100Ev, symObjAddr: 0x22320, symBinAddr: 0x1000246B4, symSize: 0xEC }
  - { offset: 0x1D0D3, size: 0x8, addend: 0x0, symName: __ZNSt3__122__compressed_pair_elemIPNS_11__tree_nodeINS_12__value_typeINS_12basic_stringIcNS_11char_traitsIcEENS_9allocatorIcEEEENS_3setIS8_NS_4lessIS8_EENS6_IS8_EEEEEEPvEELi0ELb0EE5__getB8ne180100Ev, symObjAddr: 0x2240C, symBinAddr: 0x1000247A0, symSize: 0x8C }
  - { offset: 0x1D0F9, size: 0x8, addend: 0x0, symName: __ZNSt3__110unique_ptrINS_11__tree_nodeINS_12__value_typeINS_12basic_stringIcNS_11char_traitsIcEENS_9allocatorIcEEEENS_3setIS8_NS_4lessIS8_EENS6_IS8_EEEEEEPvEENS_22__tree_node_destructorINS6_ISG_EEEEED2B8ne180100Ev, symObjAddr: 0x22498, symBinAddr: 0x10002482C, symSize: 0x68 }
  - { offset: 0x1D123, size: 0x8, addend: 0x0, symName: __ZNSt3__110unique_ptrINS_11__tree_nodeINS_12__value_typeINS_12basic_stringIcNS_11char_traitsIcEENS_9allocatorIcEEEENS_3setIS8_NS_4lessIS8_EENS6_IS8_EEEEEEPvEENS_22__tree_node_destructorINS6_ISG_EEEEE5resetB8ne180100EPSG_, symObjAddr: 0x22500, symBinAddr: 0x100024894, symSize: 0x254 }
  - { offset: 0x1D167, size: 0x8, addend: 0x0, symName: __ZNSt3__122__tree_node_destructorINS_9allocatorINS_11__tree_nodeINS_12__value_typeINS_12basic_stringIcNS_11char_traitsIcEENS1_IcEEEENS_3setIS8_NS_4lessIS8_EENS1_IS8_EEEEEEPvEEEEEclB8ne180100EPSG_, symObjAddr: 0x22754, symBinAddr: 0x100024AE8, symSize: 0x26C }
  - { offset: 0x1D19C, size: 0x8, addend: 0x0, symName: __ZNSt3__116allocator_traitsINS_9allocatorINS_11__tree_nodeINS_12__value_typeINS_12basic_stringIcNS_11char_traitsIcEENS1_IcEEEENS_3setIS8_NS_4lessIS8_EENS1_IS8_EEEEEEPvEEEEE7destroyB8ne180100INS_4pairIKS8_SD_EEvvEEvRSH_PT_, symObjAddr: 0x229C0, symBinAddr: 0x100024D54, symSize: 0x30 }
  - { offset: 0x1D1D7, size: 0x8, addend: 0x0, symName: __ZNSt3__116allocator_traitsINS_9allocatorINS_11__tree_nodeINS_12__value_typeINS_12basic_stringIcNS_11char_traitsIcEENS1_IcEEEENS_3setIS8_NS_4lessIS8_EENS1_IS8_EEEEEEPvEEEEE10deallocateB8ne180100ERSH_PSG_m, symObjAddr: 0x229F0, symBinAddr: 0x100024D84, symSize: 0x3C }
  - { offset: 0x1D219, size: 0x8, addend: 0x0, symName: __ZNSt3__14pairIKNS_12basic_stringIcNS_11char_traitsIcEENS_9allocatorIcEEEENS_3setIS6_NS_4lessIS6_EENS4_IS6_EEEEED1Ev, symObjAddr: 0x22A88, symBinAddr: 0x100024E1C, symSize: 0x64 }
  - { offset: 0x1D245, size: 0x8, addend: 0x0, symName: __ZNSt3__14pairIKNS_12basic_stringIcNS_11char_traitsIcEENS_9allocatorIcEEEENS_3setIS6_NS_4lessIS6_EENS4_IS6_EEEEED2Ev, symObjAddr: 0x22AEC, symBinAddr: 0x100024E80, symSize: 0x70 }
  - { offset: 0x1D271, size: 0x8, addend: 0x0, symName: __ZNSt3__19allocatorINS_11__tree_nodeINS_12__value_typeINS_12basic_stringIcNS_11char_traitsIcEENS0_IcEEEENS_3setIS7_NS_4lessIS7_EENS0_IS7_EEEEEEPvEEE10deallocateB8ne180100EPSF_m, symObjAddr: 0x22B5C, symBinAddr: 0x100024EF0, symSize: 0x74 }
  - { offset: 0x1D2B3, size: 0x8, addend: 0x0, symName: __ZNSt3__115__tree_iteratorINS_12__value_typeINS_12basic_stringIcNS_11char_traitsIcEENS_9allocatorIcEEEENS_3setIS7_NS_4lessIS7_EENS5_IS7_EEEEEEPNS_11__tree_nodeISD_PvEElEC2B8ne180100ESH_, symObjAddr: 0x22BD0, symBinAddr: 0x100024F64, symSize: 0xE8 }
  - { offset: 0x1D2EC, size: 0x8, addend: 0x0, symName: __ZNSt3__14pairINS_15__tree_iteratorINS_12__value_typeINS_12basic_stringIcNS_11char_traitsIcEENS_9allocatorIcEEEENS_3setIS8_NS_4lessIS8_EENS6_IS8_EEEEEEPNS_11__tree_nodeISE_PvEElEEbEC2B8ne180100ISJ_RbTnNS_9enable_ifIXclsr10_CheckArgsE17__enable_implicitIT_T0_EEEiE4typeELi0EEEOSO_OSP_, symObjAddr: 0x22CB8, symBinAddr: 0x10002504C, symSize: 0x194 }
  - { offset: 0x1D34A, size: 0x8, addend: 0x0, symName: __ZNSt3__15tupleIJRKNS_12basic_stringIcNS_11char_traitsIcEENS_9allocatorIcEEEEEEC1B8ne180100INS_4_AndETnNS_9enable_ifIXsrT_IJNS_17integral_constantIbLb1EEENS_21is_copy_constructibleIS8_EEEE5valueEiE4typeELi0EEES8_, symObjAddr: 0x22E4C, symBinAddr: 0x1000251E0, symSize: 0x6C }
  - { offset: 0x1D392, size: 0x8, addend: 0x0, symName: __ZNSt3__15tupleIJRKNS_12basic_stringIcNS_11char_traitsIcEENS_9allocatorIcEEEEEEC2B8ne180100INS_4_AndETnNS_9enable_ifIXsrT_IJNS_17integral_constantIbLb1EEENS_21is_copy_constructibleIS8_EEEE5valueEiE4typeELi0EEES8_, symObjAddr: 0x22EB8, symBinAddr: 0x10002524C, symSize: 0xA4 }
  - { offset: 0x1D3DA, size: 0x8, addend: 0x0, symName: __ZNSt3__112__tuple_implINS_15__tuple_indicesIJLm0EEEEJRKNS_12basic_stringIcNS_11char_traitsIcEENS_9allocatorIcEEEEEEC1B8ne180100IJLm0EEJSA_ETpTnmJEJEJSA_EEENS1_IJXspT_EEEENS_13__tuple_typesIJDpT0_EEENS1_IJXspT1_EEEENSE_IJDpT2_EEEDpOT3_, symObjAddr: 0x22F5C, symBinAddr: 0x1000252F0, symSize: 0x6C }
  - { offset: 0x1D46F, size: 0x8, addend: 0x0, symName: __ZNSt3__112__tuple_implINS_15__tuple_indicesIJLm0EEEEJRKNS_12basic_stringIcNS_11char_traitsIcEENS_9allocatorIcEEEEEEC2B8ne180100IJLm0EEJSA_ETpTnmJEJEJSA_EEENS1_IJXspT_EEEENS_13__tuple_typesIJDpT0_EEENS1_IJXspT1_EEEENSE_IJDpT2_EEEDpOT3_, symObjAddr: 0x22FC8, symBinAddr: 0x10002535C, symSize: 0xD8 }
  - { offset: 0x1D504, size: 0x8, addend: 0x0, symName: __ZNSt3__112__tuple_leafILm0ERKNS_12basic_stringIcNS_11char_traitsIcEENS_9allocatorIcEEEELb0EEC2B8ne180100IS8_vEEOT_, symObjAddr: 0x230A0, symBinAddr: 0x100025434, symSize: 0xF0 }
  - { offset: 0x1D547, size: 0x8, addend: 0x0, symName: __ZNSt3__114pointer_traitsIPNS_12__value_typeINS_12basic_stringIcNS_11char_traitsIcEENS_9allocatorIcEEEENS_3setIS7_NS_4lessIS7_EENS5_IS7_EEEEEEE10pointer_toB8ne180100ERSD_, symObjAddr: 0x23190, symBinAddr: 0x100025524, symSize: 0x14 }
  - { offset: 0x1D56A, size: 0x8, addend: 0x0, symName: __ZNKSt3__115__tree_iteratorINS_12__value_typeINS_12basic_stringIcNS_11char_traitsIcEENS_9allocatorIcEEEENS_3setIS7_NS_4lessIS7_EENS5_IS7_EEEEEEPNS_11__tree_nodeISD_PvEElE8__get_npB8ne180100Ev, symObjAddr: 0x231A4, symBinAddr: 0x100025538, symSize: 0xDC }
  - { offset: 0x1D590, size: 0x8, addend: 0x0, symName: __ZNSt12out_of_rangeC1B8ne180100EPKc, symObjAddr: 0x2336C, symBinAddr: 0x100025700, symSize: 0x6C }
  - { offset: 0x1D5C8, size: 0x8, addend: 0x0, symName: __ZNSt12out_of_rangeC2B8ne180100EPKc, symObjAddr: 0x233D8, symBinAddr: 0x10002576C, symSize: 0x108 }
  - { offset: 0x1D600, size: 0x8, addend: 0x0, symName: __ZNSt3__16__treeINS_12basic_stringIcNS_11char_traitsIcEENS_9allocatorIcEEEENS_4lessIS6_EENS4_IS6_EEEaSERKSA_, symObjAddr: 0x234E0, symBinAddr: 0x100025874, symSize: 0x1A0 }
  - { offset: 0x1D637, size: 0x8, addend: 0x0, symName: __ZNKSt3__16__treeINS_12basic_stringIcNS_11char_traitsIcEENS_9allocatorIcEEEENS_4lessIS6_EENS4_IS6_EEE10value_compB8ne180100Ev, symObjAddr: 0x23680, symBinAddr: 0x100025A14, symSize: 0xC4 }
  - { offset: 0x1D65D, size: 0x8, addend: 0x0, symName: __ZNSt3__16__treeINS_12basic_stringIcNS_11char_traitsIcEENS_9allocatorIcEEEENS_4lessIS6_EENS4_IS6_EEE19__copy_assign_allocB8ne180100ERKSA_, symObjAddr: 0x23744, symBinAddr: 0x100025AD8, symSize: 0x9C }
  - { offset: 0x1D692, size: 0x8, addend: 0x0, symName: __ZNSt3__16__treeINS_12basic_stringIcNS_11char_traitsIcEENS_9allocatorIcEEEENS_4lessIS6_EENS4_IS6_EEE14__assign_multiINS_21__tree_const_iteratorIS6_PNS_11__tree_nodeIS6_PvEElEEEEvT_SI_, symObjAddr: 0x237E0, symBinAddr: 0x100025B74, symSize: 0x5F8 }
  - { offset: 0x1D701, size: 0x8, addend: 0x0, symName: __ZNKSt3__16__treeINS_12basic_stringIcNS_11char_traitsIcEENS_9allocatorIcEEEENS_4lessIS6_EENS4_IS6_EEE5beginB8ne180100Ev, symObjAddr: 0x23DD8, symBinAddr: 0x10002616C, symSize: 0x254 }
  - { offset: 0x1D728, size: 0x8, addend: 0x0, symName: __ZNKSt3__16__treeINS_12basic_stringIcNS_11char_traitsIcEENS_9allocatorIcEEEENS_4lessIS6_EENS4_IS6_EEE3endB8ne180100Ev, symObjAddr: 0x2402C, symBinAddr: 0x1000263C0, symSize: 0x1EC }
  - { offset: 0x1D74F, size: 0x8, addend: 0x0, symName: __ZNKSt3__117__compressed_pairImNS_4lessINS_12basic_stringIcNS_11char_traitsIcEENS_9allocatorIcEEEEEEE6secondB8ne180100Ev, symObjAddr: 0x24218, symBinAddr: 0x1000265AC, symSize: 0xC4 }
  - { offset: 0x1D775, size: 0x8, addend: 0x0, symName: __ZNKSt3__122__compressed_pair_elemINS_4lessINS_12basic_stringIcNS_11char_traitsIcEENS_9allocatorIcEEEEEELi1ELb1EE5__getB8ne180100Ev, symObjAddr: 0x242DC, symBinAddr: 0x100026670, symSize: 0x64 }
  - { offset: 0x1D79B, size: 0x8, addend: 0x0, symName: __ZNSt3__16__treeINS_12basic_stringIcNS_11char_traitsIcEENS_9allocatorIcEEEENS_4lessIS6_EENS4_IS6_EEE19__copy_assign_allocB8ne180100ERKSA_NS_17integral_constantIbLb0EEE, symObjAddr: 0x24340, symBinAddr: 0x1000266D4, symSize: 0x58 }
  - { offset: 0x1D7FC, size: 0x8, addend: 0x0, symName: __ZNSt3__16__treeINS_12basic_stringIcNS_11char_traitsIcEENS_9allocatorIcEEEENS_4lessIS6_EENS4_IS6_EEE18_DetachedTreeCacheC1B8ne180100EPSA_, symObjAddr: 0x24398, symBinAddr: 0x10002672C, symSize: 0x6C }
  - { offset: 0x1D835, size: 0x8, addend: 0x0, symName: __ZNKSt3__16__treeINS_12basic_stringIcNS_11char_traitsIcEENS_9allocatorIcEEEENS_4lessIS6_EENS4_IS6_EEE18_DetachedTreeCache5__getB8ne180100Ev, symObjAddr: 0x24404, symBinAddr: 0x100026798, symSize: 0xA0 }
  - { offset: 0x1D85B, size: 0x8, addend: 0x0, symName: __ZNSt3__16__treeINS_12basic_stringIcNS_11char_traitsIcEENS_9allocatorIcEEEENS_4lessIS6_EENS4_IS6_EEE19__node_insert_multiEPNS_11__tree_nodeIS6_PvEE, symObjAddr: 0x244A4, symBinAddr: 0x100026838, symSize: 0x3C0 }
  - { offset: 0x1D8B7, size: 0x8, addend: 0x0, symName: __ZNSt3__16__treeINS_12basic_stringIcNS_11char_traitsIcEENS_9allocatorIcEEEENS_4lessIS6_EENS4_IS6_EEE18_DetachedTreeCache9__advanceB8ne180100Ev, symObjAddr: 0x24864, symBinAddr: 0x100026BF8, symSize: 0x188 }
  - { offset: 0x1D8DD, size: 0x8, addend: 0x0, symName: __ZNSt3__16__treeINS_12basic_stringIcNS_11char_traitsIcEENS_9allocatorIcEEEENS_4lessIS6_EENS4_IS6_EEE18_DetachedTreeCacheD1B8ne180100Ev, symObjAddr: 0x249EC, symBinAddr: 0x100026D80, symSize: 0x64 }
  - { offset: 0x1D907, size: 0x8, addend: 0x0, symName: __ZNSt3__16__treeINS_12basic_stringIcNS_11char_traitsIcEENS_9allocatorIcEEEENS_4lessIS6_EENS4_IS6_EEE14__insert_multiB8ne180100IRKS6_EENS_15__tree_iteratorIS6_PNS_11__tree_nodeIS6_PvEElEEOT_, symObjAddr: 0x24A50, symBinAddr: 0x100026DE4, symSize: 0xAC }
  - { offset: 0x1D945, size: 0x8, addend: 0x0, symName: __ZNSt3__122__tree_key_value_typesINS_12basic_stringIcNS_11char_traitsIcEENS_9allocatorIcEEEEE11__get_valueB8ne180100ERKS6_, symObjAddr: 0x24AFC, symBinAddr: 0x100026E90, symSize: 0x58 }
  - { offset: 0x1D969, size: 0x8, addend: 0x0, symName: __ZNSt3__16__treeINS_12basic_stringIcNS_11char_traitsIcEENS_9allocatorIcEEEENS_4lessIS6_EENS4_IS6_EEE18_DetachedTreeCacheC2B8ne180100EPSA_, symObjAddr: 0x24B54, symBinAddr: 0x100026EE8, symSize: 0x10C }
  - { offset: 0x1D9A2, size: 0x8, addend: 0x0, symName: __ZNSt3__16__treeINS_12basic_stringIcNS_11char_traitsIcEENS_9allocatorIcEEEENS_4lessIS6_EENS4_IS6_EEE18_DetachedTreeCache18__detach_from_treeEPSA_, symObjAddr: 0x24C60, symBinAddr: 0x100026FF4, symSize: 0x740 }
  - { offset: 0x1D9D5, size: 0x8, addend: 0x0, symName: __ZNSt3__16__treeINS_12basic_stringIcNS_11char_traitsIcEENS_9allocatorIcEEEENS_4lessIS6_EENS4_IS6_EEE16__find_leaf_highERPNS_15__tree_end_nodeIPNS_16__tree_node_baseIPvEEEERKS6_, symObjAddr: 0x253A0, symBinAddr: 0x100027734, symSize: 0x8C8 }
  - { offset: 0x1DA2A, size: 0x8, addend: 0x0, symName: __ZNSt3__16__treeINS_12basic_stringIcNS_11char_traitsIcEENS_9allocatorIcEEEENS_4lessIS6_EENS4_IS6_EEE18_DetachedTreeCache13__detach_nextEPNS_11__tree_nodeIS6_PvEE, symObjAddr: 0x25C68, symBinAddr: 0x100027FFC, symSize: 0xA4C }
  - { offset: 0x1DA4E, size: 0x8, addend: 0x0, symName: __ZNSt3__16__treeINS_12basic_stringIcNS_11char_traitsIcEENS_9allocatorIcEEEENS_4lessIS6_EENS4_IS6_EEE18_DetachedTreeCacheD2B8ne180100Ev, symObjAddr: 0x26A28, symBinAddr: 0x100028DBC, symSize: 0x494 }
  - { offset: 0x1DA78, size: 0x8, addend: 0x0, symName: __ZNSt3__16__treeINS_12basic_stringIcNS_11char_traitsIcEENS_9allocatorIcEEEENS_4lessIS6_EENS4_IS6_EEE15__emplace_multiIJRKS6_EEENS_15__tree_iteratorIS6_PNS_11__tree_nodeIS6_PvEElEEDpOT_, symObjAddr: 0x26EBC, symBinAddr: 0x100029250, symSize: 0x498 }
  - { offset: 0x1DAF1, size: 0x8, addend: 0x0, symName: __ZNKSt3__16__treeINS_12basic_stringIcNS_11char_traitsIcEENS_9allocatorIcEEEENS_4lessIS6_EENS4_IS6_EEE12__begin_nodeB8ne180100Ev, symObjAddr: 0x27354, symBinAddr: 0x1000296E8, symSize: 0x8C }
  - { offset: 0x1DB17, size: 0x8, addend: 0x0, symName: __ZNSt3__121__tree_const_iteratorINS_12basic_stringIcNS_11char_traitsIcEENS_9allocatorIcEEEEPNS_11__tree_nodeIS6_PvEElEC1B8ne180100EPNS_15__tree_end_nodeIPNS_16__tree_node_baseIS8_EEEE, symObjAddr: 0x273E0, symBinAddr: 0x100029774, symSize: 0x6C }
  - { offset: 0x1DB50, size: 0x8, addend: 0x0, symName: __ZNSt3__121__tree_const_iteratorINS_12basic_stringIcNS_11char_traitsIcEENS_9allocatorIcEEEEPNS_11__tree_nodeIS6_PvEElEC2B8ne180100EPNS_15__tree_end_nodeIPNS_16__tree_node_baseIS8_EEEE, symObjAddr: 0x2744C, symBinAddr: 0x1000297E0, symSize: 0xB8 }
  - { offset: 0x1DB89, size: 0x8, addend: 0x0, symName: __ZNKSt3__16__treeINS_12__value_typeINS_12basic_stringIcNS_11char_traitsIcEENS_9allocatorIcEEEENS_3setIS7_NS_4lessIS7_EENS5_IS7_EEEEEENS_19__map_value_compareIS7_SD_SA_Lb1EEENS5_ISD_EEE14__count_uniqueIS7_EEmRKT_, symObjAddr: 0x27504, symBinAddr: 0x100029898, symSize: 0x4D4 }
  - { offset: 0x1DBD6, size: 0x8, addend: 0x0, symName: __ZNKSt3__16__treeINS_12__value_typeINS_12basic_stringIcNS_11char_traitsIcEENS_9allocatorIcEEEENS_3setIS7_NS_4lessIS7_EENS5_IS7_EEEEEENS_19__map_value_compareIS7_SD_SA_Lb1EEENS5_ISD_EEE10value_compB8ne180100Ev, symObjAddr: 0x279D8, symBinAddr: 0x100029D6C, symSize: 0xC4 }
  - { offset: 0x1DBFC, size: 0x8, addend: 0x0, symName: __ZNKSt3__117__compressed_pairImNS_19__map_value_compareINS_12basic_stringIcNS_11char_traitsIcEENS_9allocatorIcEEEENS_12__value_typeIS7_NS_3setIS7_NS_4lessIS7_EENS5_IS7_EEEEEESB_Lb1EEEE6secondB8ne180100Ev, symObjAddr: 0x27A9C, symBinAddr: 0x100029E30, symSize: 0xC4 }
  - { offset: 0x1DC22, size: 0x8, addend: 0x0, symName: __ZNKSt3__122__compressed_pair_elemINS_19__map_value_compareINS_12basic_stringIcNS_11char_traitsIcEENS_9allocatorIcEEEENS_12__value_typeIS7_NS_3setIS7_NS_4lessIS7_EENS5_IS7_EEEEEESB_Lb1EEELi1ELb1EE5__getB8ne180100Ev, symObjAddr: 0x27B60, symBinAddr: 0x100029EF4, symSize: 0x64 }
  - { offset: 0x1DC48, size: 0x8, addend: 0x0, symName: __ZNKSt3__16__treeINS_12__value_typeINS_12basic_stringIcNS_11char_traitsIcEENS_9allocatorIcEEEENS_3setIS7_NS_4lessIS7_EENS5_IS7_EEEEEENS_19__map_value_compareIS7_SD_SA_Lb1EEENS5_ISD_EEE12__find_equalB8ne180100IS7_EERPNS_16__tree_node_baseIPvEERPNS_15__tree_end_nodeISM_EERKT_, symObjAddr: 0x27BC4, symBinAddr: 0x100029F58, symSize: 0x114 }
  - { offset: 0x1DC95, size: 0x8, addend: 0x0, symName: __ZNSt3__16__treeINS_12basic_stringIcNS_11char_traitsIcEENS_9allocatorIcEEEENS_4lessIS6_EENS4_IS6_EEE4findIS6_EENS_15__tree_iteratorIS6_PNS_11__tree_nodeIS6_PvEElEERKT_, symObjAddr: 0x27CD8, symBinAddr: 0x10002A06C, symSize: 0x3CC }
  - { offset: 0x1DCE8, size: 0x8, addend: 0x0, symName: __ZNSt3__16__treeINS_12basic_stringIcNS_11char_traitsIcEENS_9allocatorIcEEEENS_4lessIS6_EENS4_IS6_EEE13__lower_boundIS6_EENS_15__tree_iteratorIS6_PNS_11__tree_nodeIS6_PvEElEERKT_SG_PNS_15__tree_end_nodeIPNS_16__tree_node_baseISE_EEEE, symObjAddr: 0x280A4, symBinAddr: 0x10002A438, symSize: 0x570 }
  - { offset: 0x1DD48, size: 0x8, addend: 0x0, symName: __ZNKSt3__115__tree_iteratorINS_12basic_stringIcNS_11char_traitsIcEENS_9allocatorIcEEEEPNS_11__tree_nodeIS6_PvEElEdeB8ne180100Ev, symObjAddr: 0x286B4, symBinAddr: 0x10002AA48, symSize: 0xE0 }
  - { offset: 0x1DD6E, size: 0x8, addend: 0x0, symName: __ZNKSt3__115__tree_iteratorINS_12basic_stringIcNS_11char_traitsIcEENS_9allocatorIcEEEEPNS_11__tree_nodeIS6_PvEElE8__get_npB8ne180100Ev, symObjAddr: 0x2888C, symBinAddr: 0x10002AC20, symSize: 0xD4 }
  - { offset: 0x1DD94, size: 0x8, addend: 0x0, symName: __ZNSt3__16__treeINS_12basic_stringIcNS_11char_traitsIcEENS_9allocatorIcEEEENS_4lessIS6_EENS4_IS6_EEE14__erase_uniqueIS6_EEmRKT_, symObjAddr: 0x28960, symBinAddr: 0x10002ACF4, symSize: 0x314 }
  - { offset: 0x1DDE7, size: 0x8, addend: 0x0, symName: __ZNSt3__16__treeINS_12basic_stringIcNS_11char_traitsIcEENS_9allocatorIcEEEENS_4lessIS6_EENS4_IS6_EEE5eraseENS_21__tree_const_iteratorIS6_PNS_11__tree_nodeIS6_PvEElEE, symObjAddr: 0x28C74, symBinAddr: 0x10002B008, symSize: 0x2E4 }
  - { offset: 0x1DE53, size: 0x8, addend: 0x0, symName: __ZNSt3__16__treeINS_12basic_stringIcNS_11char_traitsIcEENS_9allocatorIcEEEENS_4lessIS6_EENS4_IS6_EEE21__remove_node_pointerEPNS_11__tree_nodeIS6_PvEE, symObjAddr: 0x28F58, symBinAddr: 0x10002B2EC, symSize: 0x488 }
  - { offset: 0x1DE9F, size: 0x8, addend: 0x0, symName: __ZNSt3__115__tree_iteratorINS_12basic_stringIcNS_11char_traitsIcEENS_9allocatorIcEEEEPNS_11__tree_nodeIS6_PvEElEppB8ne180100Ev, symObjAddr: 0x293E0, symBinAddr: 0x10002B774, symSize: 0x154 }
  - { offset: 0x1DEC5, size: 0x8, addend: 0x0, symName: __ZNSt3__13mapINS_12basic_stringIcNS_11char_traitsIcEENS_9allocatorIcEEEENS_3setIS6_NS_4lessIS6_EENS4_IS6_EEEES9_NS4_INS_4pairIKS6_SB_EEEEEC2B8ne180100Ev, symObjAddr: 0x2E5FC, symBinAddr: 0x100030990, symSize: 0x20C }
  - { offset: 0x1DEF0, size: 0x8, addend: 0x0, symName: __ZNSt3__119__map_value_compareINS_12basic_stringIcNS_11char_traitsIcEENS_9allocatorIcEEEENS_12__value_typeIS6_NS_3setIS6_NS_4lessIS6_EENS4_IS6_EEEEEESA_Lb1EEC1B8ne180100ESA_, symObjAddr: 0x2E808, symBinAddr: 0x100030B9C, symSize: 0x50 }
  - { offset: 0x1DF29, size: 0x8, addend: 0x0, symName: __ZNSt3__16__treeINS_12__value_typeINS_12basic_stringIcNS_11char_traitsIcEENS_9allocatorIcEEEENS_3setIS7_NS_4lessIS7_EENS5_IS7_EEEEEENS_19__map_value_compareIS7_SD_SA_Lb1EEENS5_ISD_EEEC1ERKSF_, symObjAddr: 0x2E858, symBinAddr: 0x100030BEC, symSize: 0x6C }
  - { offset: 0x1DF64, size: 0x8, addend: 0x0, symName: __ZNSt3__119__map_value_compareINS_12basic_stringIcNS_11char_traitsIcEENS_9allocatorIcEEEENS_12__value_typeIS6_NS_3setIS6_NS_4lessIS6_EENS4_IS6_EEEEEESA_Lb1EEC2B8ne180100ESA_, symObjAddr: 0x2E8C4, symBinAddr: 0x100030C58, symSize: 0x48 }
  - { offset: 0x1DF9D, size: 0x8, addend: 0x0, symName: __ZNSt3__16__treeINS_12__value_typeINS_12basic_stringIcNS_11char_traitsIcEENS_9allocatorIcEEEENS_3setIS7_NS_4lessIS7_EENS5_IS7_EEEEEENS_19__map_value_compareIS7_SD_SA_Lb1EEENS5_ISD_EEEC2ERKSF_, symObjAddr: 0x2E90C, symBinAddr: 0x100030CA0, symSize: 0x2F0 }
  - { offset: 0x1DFDA, size: 0x8, addend: 0x0, symName: __ZNSt3__117__compressed_pairINS_15__tree_end_nodeIPNS_16__tree_node_baseIPvEEEENS_9allocatorINS_11__tree_nodeINS_12__value_typeINS_12basic_stringIcNS_11char_traitsIcEENS7_IcEEEENS_3setISE_NS_4lessISE_EENS7_ISE_EEEEEES3_EEEEEC1B8ne180100ILb1EvEEv, symObjAddr: 0x2EBFC, symBinAddr: 0x100030F90, symSize: 0x64 }
  - { offset: 0x1E00F, size: 0x8, addend: 0x0, symName: __ZNSt3__117__compressed_pairImNS_19__map_value_compareINS_12basic_stringIcNS_11char_traitsIcEENS_9allocatorIcEEEENS_12__value_typeIS7_NS_3setIS7_NS_4lessIS7_EENS5_IS7_EEEEEESB_Lb1EEEEC1B8ne180100IiRKSF_EEOT_OT0_, symObjAddr: 0x2EC60, symBinAddr: 0x100030FF4, symSize: 0x74 }
  - { offset: 0x1E067, size: 0x8, addend: 0x0, symName: __ZNSt3__117__compressed_pairINS_15__tree_end_nodeIPNS_16__tree_node_baseIPvEEEENS_9allocatorINS_11__tree_nodeINS_12__value_typeINS_12basic_stringIcNS_11char_traitsIcEENS7_IcEEEENS_3setISE_NS_4lessISE_EENS7_ISE_EEEEEES3_EEEEEC2B8ne180100ILb1EvEEv, symObjAddr: 0x2ECD4, symBinAddr: 0x100031068, symSize: 0xC0 }
  - { offset: 0x1E09C, size: 0x8, addend: 0x0, symName: __ZNSt3__122__compressed_pair_elemINS_9allocatorINS_11__tree_nodeINS_12__value_typeINS_12basic_stringIcNS_11char_traitsIcEENS1_IcEEEENS_3setIS8_NS_4lessIS8_EENS1_IS8_EEEEEEPvEEEELi1ELb1EEC2B8ne180100ENS_16__value_init_tagE, symObjAddr: 0x2ED94, symBinAddr: 0x100031128, symSize: 0x70 }
  - { offset: 0x1E0D0, size: 0x8, addend: 0x0, symName: __ZNSt3__19allocatorINS_11__tree_nodeINS_12__value_typeINS_12basic_stringIcNS_11char_traitsIcEENS0_IcEEEENS_3setIS7_NS_4lessIS7_EENS0_IS7_EEEEEEPvEEEC2B8ne180100Ev, symObjAddr: 0x2EE04, symBinAddr: 0x100031198, symSize: 0x70 }
  - { offset: 0x1E0FA, size: 0x8, addend: 0x0, symName: __ZNSt3__116__non_trivial_ifILb1ENS_9allocatorINS_11__tree_nodeINS_12__value_typeINS_12basic_stringIcNS_11char_traitsIcEENS1_IcEEEENS_3setIS8_NS_4lessIS8_EENS1_IS8_EEEEEEPvEEEEEC2B8ne180100Ev, symObjAddr: 0x2EE74, symBinAddr: 0x100031208, symSize: 0x48 }
  - { offset: 0x1E124, size: 0x8, addend: 0x0, symName: __ZNSt3__117__compressed_pairImNS_19__map_value_compareINS_12basic_stringIcNS_11char_traitsIcEENS_9allocatorIcEEEENS_12__value_typeIS7_NS_3setIS7_NS_4lessIS7_EENS5_IS7_EEEEEESB_Lb1EEEEC2B8ne180100IiRKSF_EEOT_OT0_, symObjAddr: 0x2EEBC, symBinAddr: 0x100031250, symSize: 0x12C }
  - { offset: 0x1E17C, size: 0x8, addend: 0x0, symName: __ZNSt3__122__compressed_pair_elemINS_19__map_value_compareINS_12basic_stringIcNS_11char_traitsIcEENS_9allocatorIcEEEENS_12__value_typeIS7_NS_3setIS7_NS_4lessIS7_EENS5_IS7_EEEEEESB_Lb1EEELi1ELb1EEC2B8ne180100IRKSF_vEEOT_, symObjAddr: 0x2EFE8, symBinAddr: 0x10003137C, symSize: 0x4C }
  - { offset: 0x1E1BE, size: 0x8, addend: 0x0, symName: __ZNSt3__13mapINS_12basic_stringIcNS_11char_traitsIcEENS_9allocatorIcEEEENS_3setIS6_NS_4lessIS6_EENS4_IS6_EEEES9_NS4_INS_4pairIKS6_SB_EEEEED2B8ne180100Ev, symObjAddr: 0x2F034, symBinAddr: 0x1000313C8, symSize: 0x64 }
  - { offset: 0x1E1E8, size: 0x8, addend: 0x0, symName: __ZNSt3__16__treeINS_12__value_typeINS_12basic_stringIcNS_11char_traitsIcEENS_9allocatorIcEEEENS_3setIS7_NS_4lessIS7_EENS5_IS7_EEEEEENS_19__map_value_compareIS7_SD_SA_Lb1EEENS5_ISD_EEED1Ev, symObjAddr: 0x2F098, symBinAddr: 0x10003142C, symSize: 0x64 }
  - { offset: 0x1E214, size: 0x8, addend: 0x0, symName: __ZNSt3__16__treeINS_12__value_typeINS_12basic_stringIcNS_11char_traitsIcEENS_9allocatorIcEEEENS_3setIS7_NS_4lessIS7_EENS5_IS7_EEEEEENS_19__map_value_compareIS7_SD_SA_Lb1EEENS5_ISD_EEED2Ev, symObjAddr: 0x2F0FC, symBinAddr: 0x100031490, symSize: 0x70 }
  - { offset: 0x1E240, size: 0x8, addend: 0x0, symName: __ZNSt3__16__treeINS_12__value_typeINS_12basic_stringIcNS_11char_traitsIcEENS_9allocatorIcEEEENS_3setIS7_NS_4lessIS7_EENS5_IS7_EEEEEENS_19__map_value_compareIS7_SD_SA_Lb1EEENS5_ISD_EEE7destroyEPNS_11__tree_nodeISD_PvEE, symObjAddr: 0x2F16C, symBinAddr: 0x100031500, symSize: 0x3EC }
  - { offset: 0x1E2AF, size: 0x8, addend: 0x0, symName: __ZNKSt3__113basic_ostreamIcNS_11char_traitsIcEEE6sentrycvbB8ne180100Ev, symObjAddr: 0x303D0, symBinAddr: 0x100032764, symSize: 0xF0 }
  - { offset: 0x1E2D5, size: 0x8, addend: 0x0, symName: __ZNSt3__119ostreambuf_iteratorIcNS_11char_traitsIcEEEC1B8ne180100ERNS_13basic_ostreamIcS2_EE, symObjAddr: 0x30D60, symBinAddr: 0x1000330F4, symSize: 0x6C }
  - { offset: 0x1E30D, size: 0x8, addend: 0x0, symName: __ZNKSt3__18ios_base5flagsB8ne180100Ev, symObjAddr: 0x30DCC, symBinAddr: 0x100033160, symSize: 0x148 }
  - { offset: 0x1E335, size: 0x8, addend: 0x0, symName: __ZNKSt3__19basic_iosIcNS_11char_traitsIcEEE4fillB8ne180100Ev, symObjAddr: 0x30F14, symBinAddr: 0x1000332A8, symSize: 0x364 }
  - { offset: 0x1E35D, size: 0x8, addend: 0x0, symName: __ZNKSt3__119ostreambuf_iteratorIcNS_11char_traitsIcEEE6failedB8ne180100Ev, symObjAddr: 0x31278, symBinAddr: 0x10003360C, symSize: 0xA4 }
  - { offset: 0x1E383, size: 0x8, addend: 0x0, symName: __ZNSt3__115basic_streambufIcNS_11char_traitsIcEEE5sputnB8ne180100EPKcl, symObjAddr: 0x3131C, symBinAddr: 0x1000336B0, symSize: 0x17C }
  - { offset: 0x1E3C5, size: 0x8, addend: 0x0, symName: __ZNSt3__112basic_stringIcNS_11char_traitsIcEENS_9allocatorIcEEEC1B8ne180100Emc, symObjAddr: 0x31498, symBinAddr: 0x10003382C, symSize: 0x74 }
  - { offset: 0x1E40D, size: 0x8, addend: 0x0, symName: __ZNSt3__112basic_stringIcNS_11char_traitsIcEENS_9allocatorIcEEE4dataB8ne180100Ev, symObjAddr: 0x3150C, symBinAddr: 0x1000338A0, symSize: 0x60 }
  - { offset: 0x1E433, size: 0x8, addend: 0x0, symName: __ZNSt3__112basic_stringIcNS_11char_traitsIcEENS_9allocatorIcEEEC2B8ne180100Emc, symObjAddr: 0x3156C, symBinAddr: 0x100033900, symSize: 0x240 }
  - { offset: 0x1E47E, size: 0x8, addend: 0x0, symName: __ZNSt3__119ostreambuf_iteratorIcNS_11char_traitsIcEEEC2B8ne180100ERNS_13basic_ostreamIcS2_EE, symObjAddr: 0x317C0, symBinAddr: 0x100033B54, symSize: 0x2A8 }
  - { offset: 0x1E4B6, size: 0x8, addend: 0x0, symName: __ZNKSt3__16__treeINS_12__value_typeINS_12basic_stringIcNS_11char_traitsIcEENS_9allocatorIcEEEENS_3setIS7_NS_4lessIS7_EENS5_IS7_EEEEEENS_19__map_value_compareIS7_SD_SA_Lb1EEENS5_ISD_EEE4sizeB8ne180100Ev, symObjAddr: 0x31A68, symBinAddr: 0x100033DFC, symSize: 0xD8 }
  - { offset: 0x1E4DC, size: 0x8, addend: 0x0, symName: __ZNKSt3__117__compressed_pairImNS_19__map_value_compareINS_12basic_stringIcNS_11char_traitsIcEENS_9allocatorIcEEEENS_12__value_typeIS7_NS_3setIS7_NS_4lessIS7_EENS5_IS7_EEEEEESB_Lb1EEEE5firstB8ne180100Ev, symObjAddr: 0x31B40, symBinAddr: 0x100033ED4, symSize: 0xEC }
  - { offset: 0x1E502, size: 0x8, addend: 0x0, symName: __ZNKSt3__122__compressed_pair_elemImLi0ELb0EE5__getB8ne180100Ev, symObjAddr: 0x31C2C, symBinAddr: 0x100033FC0, symSize: 0x8C }
  - { offset: 0x1E528, size: 0x8, addend: 0x0, symName: __ZNKSt3__16__treeINS_12basic_stringIcNS_11char_traitsIcEENS_9allocatorIcEEEENS_4lessIS6_EENS4_IS6_EEE4sizeB8ne180100Ev, symObjAddr: 0x31CB8, symBinAddr: 0x10003404C, symSize: 0xD8 }
  - { offset: 0x1E54E, size: 0x8, addend: 0x0, symName: __ZNKSt3__117__compressed_pairImNS_4lessINS_12basic_stringIcNS_11char_traitsIcEENS_9allocatorIcEEEEEEE5firstB8ne180100Ev, symObjAddr: 0x31D90, symBinAddr: 0x100034124, symSize: 0xEC }
  - { offset: 0x20806, size: 0x8, addend: 0x0, symName: _.str, symObjAddr: 0x7680, symBinAddr: 0x10003D760, symSize: 0x0 }
  - { offset: 0x2365E, size: 0x8, addend: 0x0, symName: _main, symObjAddr: 0x8, symBinAddr: 0x1000342A8, symSize: 0x2DC }
...
