---
triple:          'arm64-apple-darwin'
binary-path:     prqueue_tests
relocations:
  - { offset: 0x3B, size: 0x8, addend: 0x0, symName: _.str, symObjAddr: 0x56000, symBinAddr: 0x10008AF20, symSize: 0x0 }
  - { offset: 0x6B, size: 0x8, addend: 0x0, symName: _.str.1, symObjAddr: 0x56020, symBinAddr: 0x10008AF40, symSize: 0x0 }
  - { offset: 0x92, size: 0x8, addend: 0x0, symName: __ZN38PRQueueCore_Declare_and_Initalize_Test10test_info_E, symObjAddr: 0x102BE0, symBinAddr: 0x1000BF700, symSize: 0x0 }
  - { offset: 0x976, size: 0x8, addend: 0x0, symName: __ZN7testing8internal31CanonicalizeForStdLibVersioningENSt3__112basic_stringIcNS1_11char_traitsIcEENS1_9allocatorIcEEEE, symObjAddr: 0x2D9B0, symBinAddr: 0x100030108, symSize: 0x248 }
  - { offset: 0x99F, size: 0x8, addend: 0x0, symName: __ZZN7testing8internal31CanonicalizeForStdLibVersioningENSt3__112basic_stringIcNS1_11char_traitsIcEENS1_9allocatorIcEEEEE6prefix, symObjAddr: 0x5E9AC, symBinAddr: 0x100095B8C, symSize: 0x0 }
  - { offset: 0x9B4, size: 0x8, addend: 0x0, symName: __ZZN7testing8internal31CanonicalizeForStdLibVersioningENSt3__112basic_stringIcNS1_11char_traitsIcEENS1_9allocatorIcEEEEE9to_search, symObjAddr: 0x5E9B4, symBinAddr: 0x100095B94, symSize: 0x0 }
  - { offset: 0x2284, size: 0x8, addend: 0x0, symName: __ZN7testing8internal33MakePredicateFormatterFromMatcherINS0_9EqMatcherIiEEEENS0_29PredicateFormatterFromMatcherIT_EES5_, symObjAddr: 0x2BC4, symBinAddr: 0x10000531C, symSize: 0x1D0 }
  - { offset: 0x22BC, size: 0x8, addend: 0x0, symName: __ZN7testing8internal33MakePredicateFormatterFromMatcherINS0_9EqMatcherIDnEEEENS0_29PredicateFormatterFromMatcherIT_EES5_, symObjAddr: 0x3F00, symBinAddr: 0x100006658, symSize: 0x1CC }
  - { offset: 0x22F4, size: 0x8, addend: 0x0, symName: __ZN7testing8internal33MakePredicateFormatterFromMatcherINS0_9NeMatcherIDnEEEENS0_29PredicateFormatterFromMatcherIT_EES5_, symObjAddr: 0x5BD0, symBinAddr: 0x100008328, symSize: 0x1CC }
  - { offset: 0x238A, size: 0x8, addend: 0x0, symName: __ZN7testing8internal33MakePredicateFormatterFromMatcherINS0_9EqMatcherIPKcEEEENS0_29PredicateFormatterFromMatcherIT_EES7_, symObjAddr: 0x9E38, symBinAddr: 0x10000C590, symSize: 0x1CC }
  - { offset: 0x24DC, size: 0x8, addend: 0x0, symName: __ZN7testing8internal33MakePredicateFormatterFromMatcherINS0_9EqMatcherIbEEEENS0_29PredicateFormatterFromMatcherIT_EES5_, symObjAddr: 0x13988, symBinAddr: 0x1000160E0, symSize: 0x1D0 }
  - { offset: 0x2572, size: 0x8, addend: 0x0, symName: __ZN7testing8internal19GetNotDefaultOrNullEPFvvES2_, symObjAddr: 0x211B4, symBinAddr: 0x10002390C, symSize: 0x4C }
  - { offset: 0x2639, size: 0x8, addend: 0x0, symName: __ZN7testing8internal20MatchPrintAndExplainIKmRS2_EEbRT_RKNS_7MatcherIT0_EEPNS_19MatchResultListenerE, symObjAddr: 0x26170, symBinAddr: 0x1000288C8, symSize: 0xCB4 }
  - { offset: 0x276B, size: 0x8, addend: 0x0, symName: __ZN7testing8internal14UniversalPrintIiEEvRKT_PNSt3__113basic_ostreamIcNS5_11char_traitsIcEEEE, symObjAddr: 0x29994, symBinAddr: 0x10002C0EC, symSize: 0x6C }
  - { offset: 0x27D9, size: 0x8, addend: 0x0, symName: __ZN7testing8internal7PrintToIiEEvRKT_PNSt3__113basic_ostreamIcNS5_11char_traitsIcEEEE, symObjAddr: 0x29A6C, symBinAddr: 0x10002C1C4, symSize: 0x6C }
  - { offset: 0x281B, size: 0x8, addend: 0x0, symName: __ZN7testing8internal17PrintWithFallbackIiEEvRKT_PNSt3__113basic_ostreamIcNS5_11char_traitsIcEEEE, symObjAddr: 0x29AD8, symBinAddr: 0x10002C230, symSize: 0x6C }
  - { offset: 0x2910, size: 0x8, addend: 0x0, symName: __ZN7testing8internal14UniversalPrintImEEvRKT_PNSt3__113basic_ostreamIcNS5_11char_traitsIcEEEE, symObjAddr: 0x2CEB8, symBinAddr: 0x10002F610, symSize: 0x6C }
  - { offset: 0x2952, size: 0x8, addend: 0x0, symName: __ZN7testing8internal11GetTypeNameIKmEENSt3__112basic_stringIcNS3_11char_traitsIcEENS3_9allocatorIcEEEEv, symObjAddr: 0x2CF24, symBinAddr: 0x10002F67C, symSize: 0x34 }
  - { offset: 0x2979, size: 0x8, addend: 0x0, symName: __ZN7testing8internal18IsReadableTypeNameERKNSt3__112basic_stringIcNS1_11char_traitsIcEENS1_9allocatorIcEEEE, symObjAddr: 0x2CF58, symBinAddr: 0x10002F6B0, symSize: 0xBC }
  - { offset: 0x29A7, size: 0x8, addend: 0x0, symName: __ZN7testing8internal15PrintIfNotEmptyERKNSt3__112basic_stringIcNS1_11char_traitsIcEENS1_9allocatorIcEEEEPNS1_13basic_ostreamIcS4_EE, symObjAddr: 0x2D014, symBinAddr: 0x10002F76C, symSize: 0x130 }
  - { offset: 0x2A0C, size: 0x8, addend: 0x0, symName: __ZN7testing8internal7PrintToImEEvRKT_PNSt3__113basic_ostreamIcNS5_11char_traitsIcEEEE, symObjAddr: 0x2D1B0, symBinAddr: 0x10002F908, symSize: 0x6C }
  - { offset: 0x2A4E, size: 0x8, addend: 0x0, symName: __ZN7testing8internal17PrintWithFallbackImEEvRKT_PNSt3__113basic_ostreamIcNS5_11char_traitsIcEEEE, symObjAddr: 0x2D21C, symBinAddr: 0x10002F974, symSize: 0x6C }
  - { offset: 0x2A90, size: 0x8, addend: 0x0, symName: __ZN7testing8internal11GetTypeNameERKSt9type_info, symObjAddr: 0x2D3D0, symBinAddr: 0x10002FB28, symSize: 0x4A8 }
  - { offset: 0x2B06, size: 0x8, addend: 0x0, symName: __ZN7testing8internal20MatchPrintAndExplainIKPN7prqueueIiE4NODEERS6_EEbRT_RKNS_7MatcherIT0_EEPNS_19MatchResultListenerE, symObjAddr: 0x331D4, symBinAddr: 0x10003592C, symSize: 0xCA0 }
  - { offset: 0x2C38, size: 0x8, addend: 0x0, symName: __ZN7testing8internal14UniversalPrintIDnEEvRKT_PNSt3__113basic_ostreamIcNS5_11char_traitsIcEEEE, symObjAddr: 0x35BCC, symBinAddr: 0x100038324, symSize: 0x6C }
  - { offset: 0x2CA6, size: 0x8, addend: 0x0, symName: __ZN7testing8internal7PrintToEDnPNSt3__113basic_ostreamIcNS1_11char_traitsIcEEEE, symObjAddr: 0x35C6C, symBinAddr: 0x1000383C4, symSize: 0x70 }
  - { offset: 0x2CDB, size: 0x8, addend: 0x0, symName: __ZN7testing8internal14UniversalPrintIPN7prqueueIiE4NODEEEEvRKT_PNSt3__113basic_ostreamIcNS9_11char_traitsIcEEEE, symObjAddr: 0x37480, symBinAddr: 0x100039BD8, symSize: 0x6C }
  - { offset: 0x2D1D, size: 0x8, addend: 0x0, symName: __ZN7testing8internal11GetTypeNameIKPN7prqueueIiE4NODEEEENSt3__112basic_stringIcNS7_11char_traitsIcEENS7_9allocatorIcEEEEv, symObjAddr: 0x374EC, symBinAddr: 0x100039C44, symSize: 0x34 }
  - { offset: 0x2D70, size: 0x8, addend: 0x0, symName: __ZN7testing8internal7PrintToIPN7prqueueIiE4NODEEEEvRKT_PNSt3__113basic_ostreamIcNS9_11char_traitsIcEEEE, symObjAddr: 0x3758C, symBinAddr: 0x100039CE4, symSize: 0x6C }
  - { offset: 0x2DB2, size: 0x8, addend: 0x0, symName: __ZN7testing8internal17PrintWithFallbackIPN7prqueueIiE4NODEEEEvRKT_PNSt3__113basic_ostreamIcNS9_11char_traitsIcEEEE, symObjAddr: 0x375F8, symBinAddr: 0x100039D50, symSize: 0x6C }
  - { offset: 0x2EDA, size: 0x8, addend: 0x0, symName: __ZN7testing8internal20MatchPrintAndExplainIKiRS2_EEbRT_RKNS_7MatcherIT0_EEPNS_19MatchResultListenerE, symObjAddr: 0x3A264, symBinAddr: 0x10003C9BC, symSize: 0xCA0 }
  - { offset: 0x300C, size: 0x8, addend: 0x0, symName: __ZN7testing8internal11GetTypeNameIKiEENSt3__112basic_stringIcNS3_11char_traitsIcEENS3_9allocatorIcEEEEv, symObjAddr: 0x3E05C, symBinAddr: 0x1000407B4, symSize: 0x2C }
  - { offset: 0x3033, size: 0x8, addend: 0x0, symName: __ZN7testing8internal20MatchPrintAndExplainIKNSt3__112basic_stringIcNS2_11char_traitsIcEENS2_9allocatorIcEEEERS9_EEbRT_RKNS_7MatcherIT0_EEPNS_19MatchResultListenerE, symObjAddr: 0x409C8, symBinAddr: 0x100043120, symSize: 0xCA0 }
  - { offset: 0x3165, size: 0x8, addend: 0x0, symName: __ZN7testing8internal14UniversalPrintIPKcEEvRKT_PNSt3__113basic_ostreamIcNS7_11char_traitsIcEEEE, symObjAddr: 0x4456C, symBinAddr: 0x100046CC4, symSize: 0x6C }
  - { offset: 0x31D3, size: 0x8, addend: 0x0, symName: __ZN7testing8internal14UniversalPrintINSt3__112basic_stringIcNS2_11char_traitsIcEENS2_9allocatorIcEEEEEEvRKT_PNS2_13basic_ostreamIcS5_EE, symObjAddr: 0x45DE8, symBinAddr: 0x100048540, symSize: 0x6C }
  - { offset: 0x3213, size: 0x8, addend: 0x0, symName: __ZN7testing8internal11GetTypeNameIKNSt3__112basic_stringIcNS2_11char_traitsIcEENS2_9allocatorIcEEEEEES8_v, symObjAddr: 0x45E54, symBinAddr: 0x1000485AC, symSize: 0x34 }
  - { offset: 0x3266, size: 0x8, addend: 0x0, symName: __ZN7testing8internal7PrintToERKNSt3__112basic_stringIcNS1_11char_traitsIcEENS1_9allocatorIcEEEEPNS1_13basic_ostreamIcS4_EE, symObjAddr: 0x45EF4, symBinAddr: 0x10004864C, symSize: 0x64 }
  - { offset: 0x329F, size: 0x8, addend: 0x0, symName: __ZN7testing8internal20MatchPrintAndExplainIKPN7prqueueINSt3__112basic_stringIcNS3_11char_traitsIcEENS3_9allocatorIcEEEEE4NODEERSD_EEbRT_RKNS_7MatcherIT0_EEPNS_19MatchResultListenerE, symObjAddr: 0x46F8C, symBinAddr: 0x1000496E4, symSize: 0xCA0 }
  - { offset: 0x33D1, size: 0x8, addend: 0x0, symName: __ZN7testing8internal14UniversalPrintIPN7prqueueINSt3__112basic_stringIcNS3_11char_traitsIcEENS3_9allocatorIcEEEEE4NODEEEEvRKT_PNS3_13basic_ostreamIcS6_EE, symObjAddr: 0x4ACBC, symBinAddr: 0x10004D414, symSize: 0x6C }
  - { offset: 0x3413, size: 0x8, addend: 0x0, symName: __ZN7testing8internal11GetTypeNameIKPN7prqueueINSt3__112basic_stringIcNS3_11char_traitsIcEENS3_9allocatorIcEEEEE4NODEEEES9_v, symObjAddr: 0x4AD28, symBinAddr: 0x10004D480, symSize: 0x34 }
  - { offset: 0x3466, size: 0x8, addend: 0x0, symName: __ZN7testing8internal7PrintToIPN7prqueueINSt3__112basic_stringIcNS3_11char_traitsIcEENS3_9allocatorIcEEEEE4NODEEEEvRKT_PNS3_13basic_ostreamIcS6_EE, symObjAddr: 0x4ADC8, symBinAddr: 0x10004D520, symSize: 0x6C }
  - { offset: 0x34A8, size: 0x8, addend: 0x0, symName: __ZN7testing8internal17PrintWithFallbackIPN7prqueueINSt3__112basic_stringIcNS3_11char_traitsIcEENS3_9allocatorIcEEEEE4NODEEEEvRKT_PNS3_13basic_ostreamIcS6_EE, symObjAddr: 0x4AE34, symBinAddr: 0x10004D58C, symSize: 0x6C }
  - { offset: 0x34EA, size: 0x8, addend: 0x0, symName: __ZN7testing8internal20MatchPrintAndExplainIKbRS2_EEbRT_RKNS_7MatcherIT0_EEPNS_19MatchResultListenerE, symObjAddr: 0x4E3A0, symBinAddr: 0x100050AF8, symSize: 0xC64 }
  - { offset: 0x361C, size: 0x8, addend: 0x0, symName: __ZN7testing8internal14UniversalPrintIbEEvRKT_PNSt3__113basic_ostreamIcNS5_11char_traitsIcEEEE, symObjAddr: 0x50C14, symBinAddr: 0x10005336C, symSize: 0x58 }
  - { offset: 0x368A, size: 0x8, addend: 0x0, symName: __ZN7testing8internal7PrintToEbPNSt3__113basic_ostreamIcNS1_11char_traitsIcEEEE, symObjAddr: 0x50D24, symBinAddr: 0x10005347C, symSize: 0xB0 }
  - { offset: 0x36C3, size: 0x8, addend: 0x0, symName: __ZN7testing8internal11GetTypeNameIKbEENSt3__112basic_stringIcNS3_11char_traitsIcEENS3_9allocatorIcEEEEv, symObjAddr: 0x52564, symBinAddr: 0x100054CBC, symSize: 0x2C }
  - { offset: 0x3F37, size: 0x8, addend: 0x0, symName: __ZN7testing2EqIiEENS_8internal9EqMatcherIT_EES3_, symObjAddr: 0x2D94, symBinAddr: 0x1000054EC, symSize: 0x1B0 }
  - { offset: 0x41C9, size: 0x8, addend: 0x0, symName: __ZN7testing2EqIDnEENS_8internal9EqMatcherIT_EES3_, symObjAddr: 0x40CC, symBinAddr: 0x100006824, symSize: 0x1E0 }
  - { offset: 0x4204, size: 0x8, addend: 0x0, symName: __ZN7testing2NeIDnEENS_8internal9NeMatcherIT_EES3_, symObjAddr: 0x5D9C, symBinAddr: 0x1000084F4, symSize: 0x1E0 }
  - { offset: 0x423F, size: 0x8, addend: 0x0, symName: __ZN7testing2EqIPKcEENS_8internal9EqMatcherIT_EES5_, symObjAddr: 0xA004, symBinAddr: 0x10000C75C, symSize: 0x1E0 }
  - { offset: 0x427A, size: 0x8, addend: 0x0, symName: __ZN7testing2EqIbEENS_8internal9EqMatcherIT_EES3_, symObjAddr: 0x13B58, symBinAddr: 0x1000162B0, symSize: 0x1B0 }
  - { offset: 0x42B5, size: 0x8, addend: 0x0, symName: __ZN7testing15SafeMatcherCastIRKmNS_8internal9EqMatcherIiEEEENS_7MatcherIT_EERKT0_, symObjAddr: 0x253D4, symBinAddr: 0x100027B2C, symSize: 0x68 }
  - { offset: 0x441D, size: 0x8, addend: 0x0, symName: __ZN7testing11MatcherCastIRKmNS_8internal9EqMatcherIiEEEENS_7MatcherIT_EERKT0_, symObjAddr: 0x27730, symBinAddr: 0x100029E88, symSize: 0x70 }
  - { offset: 0x445D, size: 0x8, addend: 0x0, symName: __ZN7testing15SafeMatcherCastIRKPN7prqueueIiE4NODEENS_8internal9EqMatcherIDnEEEENS_7MatcherIT_EERKT0_, symObjAddr: 0x32840, symBinAddr: 0x100034F98, symSize: 0x68 }
  - { offset: 0x4544, size: 0x8, addend: 0x0, symName: __ZN7testing11MatcherCastIRKPN7prqueueIiE4NODEENS_8internal9EqMatcherIDnEEEENS_7MatcherIT_EERKT0_, symObjAddr: 0x33EE0, symBinAddr: 0x100036638, symSize: 0x70 }
  - { offset: 0x4584, size: 0x8, addend: 0x0, symName: __ZN7testing15SafeMatcherCastIRKPN7prqueueIiE4NODEENS_8internal9NeMatcherIDnEEEENS_7MatcherIT_EERKT0_, symObjAddr: 0x37AF8, symBinAddr: 0x10003A250, symSize: 0x70 }
  - { offset: 0x45C4, size: 0x8, addend: 0x0, symName: __ZN7testing11MatcherCastIRKPN7prqueueIiE4NODEENS_8internal9NeMatcherIDnEEEENS_7MatcherIT_EERKT0_, symObjAddr: 0x37B68, symBinAddr: 0x10003A2C0, symSize: 0x70 }
  - { offset: 0x4604, size: 0x8, addend: 0x0, symName: __ZN7testing15SafeMatcherCastIRKiNS_8internal9EqMatcherIiEEEENS_7MatcherIT_EERKT0_, symObjAddr: 0x398D0, symBinAddr: 0x10003C028, symSize: 0x68 }
  - { offset: 0x46CD, size: 0x8, addend: 0x0, symName: __ZN7testing11MatcherCastIRKiNS_8internal9EqMatcherIiEEEENS_7MatcherIT_EERKT0_, symObjAddr: 0x3AF70, symBinAddr: 0x10003D6C8, symSize: 0x70 }
  - { offset: 0x470D, size: 0x8, addend: 0x0, symName: __ZN7testing15SafeMatcherCastIRKNSt3__112basic_stringIcNS1_11char_traitsIcEENS1_9allocatorIcEEEENS_8internal9EqMatcherIPKcEEEENS_7MatcherIT_EERKT0_, symObjAddr: 0x40034, symBinAddr: 0x10004278C, symSize: 0x68 }
  - { offset: 0x482F, size: 0x8, addend: 0x0, symName: __ZN7testing11MatcherCastIRKNSt3__112basic_stringIcNS1_11char_traitsIcEENS1_9allocatorIcEEEENS_8internal9EqMatcherIPKcEEEENS_7MatcherIT_EERKT0_, symObjAddr: 0x416D4, symBinAddr: 0x100043E2C, symSize: 0x70 }
  - { offset: 0x486F, size: 0x8, addend: 0x0, symName: __ZN7testing15SafeMatcherCastIRKPN7prqueueINSt3__112basic_stringIcNS2_11char_traitsIcEENS2_9allocatorIcEEEEE4NODEENS_8internal9NeMatcherIDnEEEENS_7MatcherIT_EERKT0_, symObjAddr: 0x465F8, symBinAddr: 0x100048D50, symSize: 0x68 }
  - { offset: 0x4938, size: 0x8, addend: 0x0, symName: __ZN7testing11MatcherCastIRKPN7prqueueINSt3__112basic_stringIcNS2_11char_traitsIcEENS2_9allocatorIcEEEEE4NODEENS_8internal9NeMatcherIDnEEEENS_7MatcherIT_EERKT0_, symObjAddr: 0x47C98, symBinAddr: 0x10004A3F0, symSize: 0x70 }
  - { offset: 0x4978, size: 0x8, addend: 0x0, symName: __ZN7testing15SafeMatcherCastIRKbNS_8internal9EqMatcherIbEEEENS_7MatcherIT_EERKT0_, symObjAddr: 0x4DA34, symBinAddr: 0x10005018C, symSize: 0x54 }
  - { offset: 0x4A41, size: 0x8, addend: 0x0, symName: __ZN7testing11MatcherCastIRKbNS_8internal9EqMatcherIbEEEENS_7MatcherIT_EERKT0_, symObjAddr: 0x4F070, symBinAddr: 0x1000517C8, symSize: 0x5C }
  - { offset: 0xBF2B, size: 0x8, addend: 0x0, symName: __ZNSt3__124__put_character_sequenceB8ne180100IcNS_11char_traitsIcEEEERNS_13basic_ostreamIT_T0_EES7_PKS4_m, symObjAddr: 0x2132C, symBinAddr: 0x100023A84, symSize: 0xE78 }
  - { offset: 0xF3F3, size: 0x8, addend: 0x0, symName: __ZNSt3__118__constexpr_strlenB8ne180100EPKc, symObjAddr: 0x1C6F4, symBinAddr: 0x10001EE4C, symSize: 0x24 }
  - { offset: 0xF41F, size: 0x8, addend: 0x0, symName: __ZNSt3__1eqB8ne180100INS_12basic_stringIcNS_11char_traitsIcEENS_9allocatorIcEEEENS_14default_deleteIS6_EEEEbRKNS_10unique_ptrIT_T0_EEDn, symObjAddr: 0x1DE14, symBinAddr: 0x10002056C, symSize: 0x54 }
  - { offset: 0xF46A, size: 0x8, addend: 0x0, symName: __ZNSt3__112__to_addressB8ne180100IKcEEPT_S3_, symObjAddr: 0x1E2C4, symBinAddr: 0x100020A1C, symSize: 0x14 }
  - { offset: 0xF4D2, size: 0x8, addend: 0x0, symName: __ZNSt3__1lsB8ne180100INS_11char_traitsIcEEEERNS_13basic_ostreamIcT_EES6_PKc, symObjAddr: 0x21218, symBinAddr: 0x100023970, symSize: 0xB0 }
  - { offset: 0xF518, size: 0x8, addend: 0x0, symName: __ZNSt3__116__pad_and_outputB8ne180100IcNS_11char_traitsIcEEEENS_19ostreambuf_iteratorIT_T0_EES6_PKS4_S8_S8_RNS_8ios_baseES4_, symObjAddr: 0x22294, symBinAddr: 0x1000249EC, symSize: 0x8A0 }
  - { offset: 0xF5F2, size: 0x8, addend: 0x0, symName: __ZNSt3__112__to_addressB8ne180100IcEEPT_S2_, symObjAddr: 0x23994, symBinAddr: 0x1000260EC, symSize: 0x14 }
  - { offset: 0xF627, size: 0x8, addend: 0x0, symName: __ZNSt3__19use_facetB8ne180100INS_5ctypeIcEEEERKT_RKNS_6localeE, symObjAddr: 0x246C8, symBinAddr: 0x100026E20, symSize: 0x164 }
  - { offset: 0xFAF4, size: 0x8, addend: 0x0, symName: __ZNSt3__1lsB8ne180100IcNS_11char_traitsIcEENS_9allocatorIcEEEERNS_13basic_ostreamIT_T0_EES9_RKNS_12basic_stringIS6_S7_T1_EE, symObjAddr: 0x26E24, symBinAddr: 0x10002957C, symSize: 0x104 }
  - { offset: 0xFB4C, size: 0x8, addend: 0x0, symName: __ZNSt3__13getB8ne180100ILm0EJPKN7testing8internal11MatcherBaseIRKmEEPKNS2_9EqMatcherIiEEEEEONS_13tuple_elementIXT_ENS_5tupleIJDpT0_EEEE4typeEOSH_, symObjAddr: 0x29CC4, symBinAddr: 0x10002C41C, symSize: 0xC0 }
  - { offset: 0xFB94, size: 0x8, addend: 0x0, symName: __ZNSt3__110make_tupleB8ne180100IJPKN7testing8internal11MatcherBaseIRKmEEPKNS2_9EqMatcherIiEEEEENS_5tupleIJDpNS_18__unwrap_ref_decayIT_E4typeEEEEDpOSF_, symObjAddr: 0x29D84, symBinAddr: 0x10002C4DC, symSize: 0x230 }
  - { offset: 0x10014, size: 0x8, addend: 0x0, symName: __ZNSt3__122__cxx_atomic_fetch_subB8ne180100IiEET_PNS_22__cxx_atomic_base_implIS1_EES1_NS_12memory_orderE, symObjAddr: 0x2AFE8, symBinAddr: 0x10002D740, symSize: 0x2E4 }
  - { offset: 0x10069, size: 0x8, addend: 0x0, symName: __ZNSt3__110__str_findB8ne180100IcmNS_11char_traitsIcEETnT0_Lm18446744073709551615EEES3_PKT_S3_S6_S3_S3_, symObjAddr: 0x2DCA8, symBinAddr: 0x100030400, symSize: 0x3D0 }
  - { offset: 0x10110, size: 0x8, addend: 0x0, symName: __ZNSt3__118__search_substringB8ne180100IcNS_11char_traitsIcEEEEPKT_S5_S5_S5_S5_, symObjAddr: 0x2E078, symBinAddr: 0x1000307D0, symSize: 0x44C }
  - { offset: 0x101B4, size: 0x8, addend: 0x0, symName: __ZNSt3__118__constexpr_memchrB8ne180100IKccEEPT_S3_T0_m, symObjAddr: 0x2E5E0, symBinAddr: 0x100030D38, symSize: 0x4C }
  - { offset: 0x1022A, size: 0x8, addend: 0x0, symName: __ZNSt3__119__str_find_first_ofB8ne180100IcmNS_11char_traitsIcEETnT0_Lm18446744073709551615EEES3_PKT_S3_S6_S3_S3_, symObjAddr: 0x2E738, symBinAddr: 0x100030E90, symSize: 0x3E8 }
  - { offset: 0x102D1, size: 0x8, addend: 0x0, symName: __ZNSt3__118__find_first_of_ceB8ne180100IPKcS2_RDoFbccEEET_S5_S5_T0_S6_OT1_, symObjAddr: 0x2EB20, symBinAddr: 0x100031278, symSize: 0x310 }
  - { offset: 0x1036C, size: 0x8, addend: 0x0, symName: __ZNSt3__111make_uniqueB8ne180100INS_12basic_stringIcNS_11char_traitsIcEENS_9allocatorIcEEEEJEEENS_11__unique_ifIT_E15__unique_singleEDpOT0_, symObjAddr: 0x2F4BC, symBinAddr: 0x100031C14, symSize: 0xA4 }
  - { offset: 0x10399, size: 0x8, addend: 0x0, symName: __ZNSt3__110to_addressB8ne180100IcEEDaPT_, symObjAddr: 0x317D0, symBinAddr: 0x100033F28, symSize: 0x24 }
  - { offset: 0x103CE, size: 0x8, addend: 0x0, symName: __ZNSt3__13getB8ne180100ILm0EJPKN7testing8internal11MatcherBaseIRKPN7prqueueIiE4NODEEEEPKNS2_9EqMatcherIDnEEEEEONS_13tuple_elementIXT_ENS_5tupleIJDpT0_EEEE4typeEOSL_, symObjAddr: 0x35CF0, symBinAddr: 0x100038448, symSize: 0xC0 }
  - { offset: 0x10416, size: 0x8, addend: 0x0, symName: __ZNSt3__110make_tupleB8ne180100IJPKN7testing8internal11MatcherBaseIRKPN7prqueueIiE4NODEEEEPKNS2_9EqMatcherIDnEEEEENS_5tupleIJDpNS_18__unwrap_ref_decayIT_E4typeEEEEDpOSJ_, symObjAddr: 0x35DB0, symBinAddr: 0x100038508, symSize: 0x230 }
  - { offset: 0x10862, size: 0x8, addend: 0x0, symName: __ZNSt3__13getB8ne180100ILm0EJPKN7testing8internal11MatcherBaseIRKPN7prqueueIiE4NODEEEEPKNS2_9NeMatcherIDnEEEEEONS_13tuple_elementIXT_ENS_5tupleIJDpT0_EEEE4typeEOSL_, symObjAddr: 0x39180, symBinAddr: 0x10003B8D8, symSize: 0xC0 }
  - { offset: 0x108AA, size: 0x8, addend: 0x0, symName: __ZNSt3__110make_tupleB8ne180100IJPKN7testing8internal11MatcherBaseIRKPN7prqueueIiE4NODEEEEPKNS2_9NeMatcherIDnEEEEENS_5tupleIJDpNS_18__unwrap_ref_decayIT_E4typeEEEEDpOSJ_, symObjAddr: 0x39240, symBinAddr: 0x10003B998, symSize: 0x230 }
  - { offset: 0x10BEF, size: 0x8, addend: 0x0, symName: __ZNSt3__13getB8ne180100ILm0EJPKN7testing8internal11MatcherBaseIRKiEEPKNS2_9EqMatcherIiEEEEEONS_13tuple_elementIXT_ENS_5tupleIJDpT0_EEEE4typeEOSH_, symObjAddr: 0x3C9F0, symBinAddr: 0x10003F148, symSize: 0xC0 }
  - { offset: 0x10C37, size: 0x8, addend: 0x0, symName: __ZNSt3__110make_tupleB8ne180100IJPKN7testing8internal11MatcherBaseIRKiEEPKNS2_9EqMatcherIiEEEEENS_5tupleIJDpNS_18__unwrap_ref_decayIT_E4typeEEEEDpOSF_, symObjAddr: 0x3CAB0, symBinAddr: 0x10003F208, symSize: 0x230 }
  - { offset: 0x10F7C, size: 0x8, addend: 0x0, symName: __ZNSt3__1eqB8ne180100IcNS_11char_traitsIcEENS_9allocatorIcEEEEbRKNS_12basic_stringIT_T0_T1_EEPKS6_, symObjAddr: 0x43124, symBinAddr: 0x10004587C, symSize: 0x218 }
  - { offset: 0x10FD6, size: 0x8, addend: 0x0, symName: __ZNSt3__1eqB8ne180100IcNS_11char_traitsIcEEEEbNS_17basic_string_viewIT_T0_EENS_13type_identityIS6_E4typeE, symObjAddr: 0x4333C, symBinAddr: 0x100045A94, symSize: 0x260 }
  - { offset: 0x1102D, size: 0x8, addend: 0x0, symName: __ZNSt3__13minB8ne180100ImEERKT_S3_S3_, symObjAddr: 0x43BDC, symBinAddr: 0x100046334, symSize: 0xDC }
  - { offset: 0x11070, size: 0x8, addend: 0x0, symName: __ZNSt3__13minB8ne180100ImNS_6__lessIvvEEEERKT_S5_S5_T0_, symObjAddr: 0x43CB8, symBinAddr: 0x100046410, symSize: 0x270 }
  - { offset: 0x11115, size: 0x8, addend: 0x0, symName: __ZNSt3__128__char_traits_length_checkedB8ne180100INS_11char_traitsIcEEEEmPKNT_9char_typeE, symObjAddr: 0x4426C, symBinAddr: 0x1000469C4, symSize: 0x24 }
  - { offset: 0x1114C, size: 0x8, addend: 0x0, symName: __ZNSt3__13getB8ne180100ILm0EJPKN7testing8internal11MatcherBaseIRKNS_12basic_stringIcNS_11char_traitsIcEENS_9allocatorIcEEEEEEPKNS2_9EqMatcherIPKcEEEEEONS_13tuple_elementIXT_ENS_5tupleIJDpT0_EEEE4typeEOSP_, symObjAddr: 0x44658, symBinAddr: 0x100046DB0, symSize: 0xC0 }
  - { offset: 0x11194, size: 0x8, addend: 0x0, symName: __ZNSt3__110make_tupleB8ne180100IJPKN7testing8internal11MatcherBaseIRKNS_12basic_stringIcNS_11char_traitsIcEENS_9allocatorIcEEEEEEPKNS2_9EqMatcherIPKcEEEEENS_5tupleIJDpNS_18__unwrap_ref_decayIT_E4typeEEEEDpOSN_, symObjAddr: 0x44718, symBinAddr: 0x100046E70, symSize: 0x230 }
  - { offset: 0x115E0, size: 0x8, addend: 0x0, symName: __ZNSt3__13getB8ne180100ILm0EJPKN7testing8internal11MatcherBaseIRKPN7prqueueINS_12basic_stringIcNS_11char_traitsIcEENS_9allocatorIcEEEEE4NODEEEEPKNS2_9NeMatcherIDnEEEEEONS_13tuple_elementIXT_ENS_5tupleIJDpT0_EEEE4typeEOSR_, symObjAddr: 0x49650, symBinAddr: 0x10004BDA8, symSize: 0xC0 }
  - { offset: 0x11628, size: 0x8, addend: 0x0, symName: __ZNSt3__110make_tupleB8ne180100IJPKN7testing8internal11MatcherBaseIRKPN7prqueueINS_12basic_stringIcNS_11char_traitsIcEENS_9allocatorIcEEEEE4NODEEEEPKNS2_9NeMatcherIDnEEEEENS_5tupleIJDpNS_18__unwrap_ref_decayIT_E4typeEEEEDpOSP_, symObjAddr: 0x49710, symBinAddr: 0x10004BE68, symSize: 0x230 }
  - { offset: 0x1196D, size: 0x8, addend: 0x0, symName: __ZNSt3__1eqB8ne180100INS_9allocatorIcEEEEbRKNS_12basic_stringIcNS_11char_traitsIcEET_EES9_, symObjAddr: 0x4D648, symBinAddr: 0x10004FDA0, symSize: 0x3EC }
  - { offset: 0x119E0, size: 0x8, addend: 0x0, symName: __ZNSt3__13getB8ne180100ILm0EJPKN7testing8internal11MatcherBaseIRKbEEPKNS2_9EqMatcherIbEEEEEONS_13tuple_elementIXT_ENS_5tupleIJDpT0_EEEE4typeEOSH_, symObjAddr: 0x50DE8, symBinAddr: 0x100053540, symSize: 0xC0 }
  - { offset: 0x11A28, size: 0x8, addend: 0x0, symName: __ZNSt3__110make_tupleB8ne180100IJPKN7testing8internal11MatcherBaseIRKbEEPKNS2_9EqMatcherIbEEEEENS_5tupleIJDpNS_18__unwrap_ref_decayIT_E4typeEEEEDpOSF_, symObjAddr: 0x50EA8, symBinAddr: 0x100053600, symSize: 0x230 }
  - { offset: 0x1348B, size: 0x8, addend: 0x0, symName: _.str.3, symObjAddr: 0x56060, symBinAddr: 0x10008AF80, symSize: 0x0 }
  - { offset: 0x1349C, size: 0x8, addend: 0x0, symName: _.str.4, symObjAddr: 0x56080, symBinAddr: 0x10008AFA0, symSize: 0x0 }
  - { offset: 0x134B9, size: 0x8, addend: 0x0, symName: _.str.5, symObjAddr: 0x560A0, symBinAddr: 0x10008AFC0, symSize: 0x0 }
  - { offset: 0x134D6, size: 0x8, addend: 0x0, symName: _.str.6, symObjAddr: 0x560E0, symBinAddr: 0x10008B000, symSize: 0x0 }
  - { offset: 0x134E7, size: 0x8, addend: 0x0, symName: _.str.7, symObjAddr: 0x56120, symBinAddr: 0x10008B040, symSize: 0x0 }
  - { offset: 0x134F8, size: 0x8, addend: 0x0, symName: _.str.8, symObjAddr: 0x56160, symBinAddr: 0x10008B080, symSize: 0x0 }
  - { offset: 0x13515, size: 0x8, addend: 0x0, symName: _.str.9, symObjAddr: 0x561A0, symBinAddr: 0x10008B0C0, symSize: 0x0 }
  - { offset: 0x13532, size: 0x8, addend: 0x0, symName: _.str.11, symObjAddr: 0x561E0, symBinAddr: 0x10008B100, symSize: 0x0 }
  - { offset: 0x1354F, size: 0x8, addend: 0x0, symName: _.str.12, symObjAddr: 0x56200, symBinAddr: 0x10008B120, symSize: 0x0 }
  - { offset: 0x1356A, size: 0x8, addend: 0x0, symName: __ZN37PRQueueUsing_Adding_and_Removing_Test10test_info_E, symObjAddr: 0x102C00, symBinAddr: 0x1000BF720, symSize: 0x0 }
  - { offset: 0x13654, size: 0x8, addend: 0x0, symName: _.str.13, symObjAddr: 0x56240, symBinAddr: 0x10008B160, symSize: 0x0 }
  - { offset: 0x13671, size: 0x8, addend: 0x0, symName: _.str.14, symObjAddr: 0x56260, symBinAddr: 0x10008B180, symSize: 0x0 }
  - { offset: 0x1368E, size: 0x8, addend: 0x0, symName: _.str.15, symObjAddr: 0x56280, symBinAddr: 0x10008B1A0, symSize: 0x0 }
  - { offset: 0x136AB, size: 0x8, addend: 0x0, symName: _.str.16, symObjAddr: 0x562A0, symBinAddr: 0x10008B1C0, symSize: 0x0 }
  - { offset: 0x136BC, size: 0x8, addend: 0x0, symName: _.str.17, symObjAddr: 0x562C0, symBinAddr: 0x10008B1E0, symSize: 0x0 }
  - { offset: 0x136CD, size: 0x8, addend: 0x0, symName: _.str.18, symObjAddr: 0x562E0, symBinAddr: 0x10008B200, symSize: 0x0 }
  - { offset: 0x136EA, size: 0x8, addend: 0x0, symName: _.str.19, symObjAddr: 0x56360, symBinAddr: 0x10008B280, symSize: 0x0 }
  - { offset: 0x136FB, size: 0x8, addend: 0x0, symName: _.str.20, symObjAddr: 0x56380, symBinAddr: 0x10008B2A0, symSize: 0x0 }
  - { offset: 0x13718, size: 0x8, addend: 0x0, symName: _.str.21, symObjAddr: 0x563A0, symBinAddr: 0x10008B2C0, symSize: 0x0 }
  - { offset: 0x13729, size: 0x8, addend: 0x0, symName: _.str.22, symObjAddr: 0x563C0, symBinAddr: 0x10008B2E0, symSize: 0x0 }
  - { offset: 0x1373A, size: 0x8, addend: 0x0, symName: _.str.24, symObjAddr: 0x563E0, symBinAddr: 0x10008B300, symSize: 0x0 }
  - { offset: 0x1374B, size: 0x8, addend: 0x0, symName: _.str.25, symObjAddr: 0x56420, symBinAddr: 0x10008B340, symSize: 0x0 }
  - { offset: 0x13766, size: 0x8, addend: 0x0, symName: __ZN41PRQueueDuplicates_Duplicates_Allowed_Test10test_info_E, symObjAddr: 0x102C20, symBinAddr: 0x1000BF740, symSize: 0x0 }
  - { offset: 0x13850, size: 0x8, addend: 0x0, symName: _.str.26, symObjAddr: 0x56460, symBinAddr: 0x10008B380, symSize: 0x0 }
  - { offset: 0x1386D, size: 0x8, addend: 0x0, symName: _.str.27, symObjAddr: 0x564C0, symBinAddr: 0x10008B3E0, symSize: 0x0 }
  - { offset: 0x1387E, size: 0x8, addend: 0x0, symName: _.str.28, symObjAddr: 0x564E0, symBinAddr: 0x10008B400, symSize: 0x0 }
  - { offset: 0x1389B, size: 0x8, addend: 0x0, symName: _.str.29, symObjAddr: 0x56560, symBinAddr: 0x10008B480, symSize: 0x0 }
  - { offset: 0x138AC, size: 0x8, addend: 0x0, symName: _.str.30, symObjAddr: 0x56580, symBinAddr: 0x10008B4A0, symSize: 0x0 }
  - { offset: 0x138BD, size: 0x8, addend: 0x0, symName: _.str.31, symObjAddr: 0x565C0, symBinAddr: 0x10008B4E0, symSize: 0x0 }
  - { offset: 0x138CE, size: 0x8, addend: 0x0, symName: _.str.33, symObjAddr: 0x56600, symBinAddr: 0x10008B520, symSize: 0x0 }
  - { offset: 0x138DF, size: 0x8, addend: 0x0, symName: _.str.34, symObjAddr: 0x56620, symBinAddr: 0x10008B540, symSize: 0x0 }
  - { offset: 0x138FA, size: 0x8, addend: 0x0, symName: __ZN36PRQueueCopying_Correctly_Copied_Test10test_info_E, symObjAddr: 0x102C40, symBinAddr: 0x1000BF760, symSize: 0x0 }
  - { offset: 0x139E4, size: 0x8, addend: 0x0, symName: _.str.35, symObjAddr: 0x56660, symBinAddr: 0x10008B580, symSize: 0x0 }
  - { offset: 0x139F5, size: 0x8, addend: 0x0, symName: _.str.36, symObjAddr: 0x56680, symBinAddr: 0x10008B5A0, symSize: 0x0 }
  - { offset: 0x13A06, size: 0x8, addend: 0x0, symName: _.str.37, symObjAddr: 0x566A0, symBinAddr: 0x10008B5C0, symSize: 0x0 }
  - { offset: 0x13A17, size: 0x8, addend: 0x0, symName: _.str.38, symObjAddr: 0x566C0, symBinAddr: 0x10008B5E0, symSize: 0x0 }
  - { offset: 0x13A28, size: 0x8, addend: 0x0, symName: _.str.40, symObjAddr: 0x566E0, symBinAddr: 0x10008B600, symSize: 0x0 }
  - { offset: 0x13A45, size: 0x8, addend: 0x0, symName: _.str.41, symObjAddr: 0x56700, symBinAddr: 0x10008B620, symSize: 0x0 }
  - { offset: 0x13A54, size: 0x8, addend: 0x0, symName: __ZN36PRQueueEquality_Operator_Equals_Test10test_info_E, symObjAddr: 0x102C60, symBinAddr: 0x1000BF780, symSize: 0x0 }
  - { offset: 0x13B3E, size: 0x8, addend: 0x0, symName: _.str.42, symObjAddr: 0x56720, symBinAddr: 0x10008B640, symSize: 0x0 }
  - { offset: 0x13B5B, size: 0x8, addend: 0x0, symName: _.str.43, symObjAddr: 0x56740, symBinAddr: 0x10008B660, symSize: 0x0 }
  - { offset: 0x13B78, size: 0x8, addend: 0x0, symName: _.str.44, symObjAddr: 0x56760, symBinAddr: 0x10008B680, symSize: 0x0 }
  - { offset: 0x13B89, size: 0x8, addend: 0x0, symName: _.str.46, symObjAddr: 0x56780, symBinAddr: 0x10008B6A0, symSize: 0x0 }
  - { offset: 0x13B9A, size: 0x8, addend: 0x0, symName: _.str.47, symObjAddr: 0x567A0, symBinAddr: 0x10008B6C0, symSize: 0x0 }
  - { offset: 0x13BA9, size: 0x8, addend: 0x0, symName: __ZN35PRQueueIterator_begin_and_next_Test10test_info_E, symObjAddr: 0x102C80, symBinAddr: 0x1000BF7A0, symSize: 0x0 }
  - { offset: 0x13C93, size: 0x8, addend: 0x0, symName: _.str.48, symObjAddr: 0x567C0, symBinAddr: 0x10008B6E0, symSize: 0x0 }
  - { offset: 0x13CB0, size: 0x8, addend: 0x0, symName: _.str.49, symObjAddr: 0x56800, symBinAddr: 0x10008B720, symSize: 0x0 }
  - { offset: 0x13CC1, size: 0x8, addend: 0x0, symName: _.str.50, symObjAddr: 0x56820, symBinAddr: 0x10008B740, symSize: 0x0 }
  - { offset: 0x13CD2, size: 0x8, addend: 0x0, symName: _.str.51, symObjAddr: 0x56840, symBinAddr: 0x10008B760, symSize: 0x0 }
  - { offset: 0x13CE3, size: 0x8, addend: 0x0, symName: _.str.52, symObjAddr: 0x56860, symBinAddr: 0x10008B780, symSize: 0x0 }
  - { offset: 0x13CF4, size: 0x8, addend: 0x0, symName: _.str.53, symObjAddr: 0x56880, symBinAddr: 0x10008B7A0, symSize: 0x0 }
  - { offset: 0x13D05, size: 0x8, addend: 0x0, symName: _.str.54, symObjAddr: 0x568A0, symBinAddr: 0x10008B7C0, symSize: 0x0 }
  - { offset: 0x13D16, size: 0x8, addend: 0x0, symName: _.str.55, symObjAddr: 0x568C0, symBinAddr: 0x10008B7E0, symSize: 0x0 }
  - { offset: 0x13D27, size: 0x8, addend: 0x0, symName: _.str.56, symObjAddr: 0x568E0, symBinAddr: 0x10008B800, symSize: 0x0 }
  - { offset: 0x13D38, size: 0x8, addend: 0x0, symName: _.str.57, symObjAddr: 0x56900, symBinAddr: 0x10008B820, symSize: 0x0 }
  - { offset: 0x13D55, size: 0x8, addend: 0x0, symName: _.str.62, symObjAddr: 0x5C280, symBinAddr: 0x100093480, symSize: 0x0 }
  - { offset: 0x13D74, size: 0x8, addend: 0x0, symName: _.str.66, symObjAddr: 0x56B60, symBinAddr: 0x10008BA80, symSize: 0x0 }
  - { offset: 0x13D93, size: 0x8, addend: 0x0, symName: _.str.67, symObjAddr: 0x56BC0, symBinAddr: 0x10008BAE0, symSize: 0x0 }
  - { offset: 0x13DB2, size: 0x8, addend: 0x0, symName: _.str.68, symObjAddr: 0x56C60, symBinAddr: 0x10008BB80, symSize: 0x0 }
  - { offset: 0x13DD1, size: 0x8, addend: 0x0, symName: _.str.76, symObjAddr: 0x56C80, symBinAddr: 0x10008BBA0, symSize: 0x0 }
  - { offset: 0x13DF0, size: 0x8, addend: 0x0, symName: _.str.80, symObjAddr: 0x56D20, symBinAddr: 0x10008BC40, symSize: 0x0 }
  - { offset: 0x13E03, size: 0x8, addend: 0x0, symName: _.str.81, symObjAddr: 0x56D40, symBinAddr: 0x10008BC60, symSize: 0x0 }
  - { offset: 0x13E16, size: 0x8, addend: 0x0, symName: _.str.82, symObjAddr: 0x56D60, symBinAddr: 0x10008BC80, symSize: 0x0 }
  - { offset: 0x13E29, size: 0x8, addend: 0x0, symName: _.str.83, symObjAddr: 0x56D80, symBinAddr: 0x10008BCA0, symSize: 0x0 }
  - { offset: 0x13E48, size: 0x8, addend: 0x0, symName: _.str.84, symObjAddr: 0x56E20, symBinAddr: 0x10008BD40, symSize: 0x0 }
  - { offset: 0x13E59, size: 0x8, addend: 0x0, symName: _.str.85, symObjAddr: 0x56E40, symBinAddr: 0x10008BD60, symSize: 0x0 }
  - { offset: 0x13E6A, size: 0x8, addend: 0x0, symName: _.str.86, symObjAddr: 0x56E60, symBinAddr: 0x10008BD80, symSize: 0x0 }
  - { offset: 0x141B0, size: 0x8, addend: 0x0, symName: __ZN7testing8internal11MatcherBaseIRKmE9GetVTableINS4_11ValuePolicyINS0_9EqMatcherIiEELb1EEEEEPKNS4_6VTableEv, symObjAddr: 0x28910, symBinAddr: 0x10002B068, symSize: 0x64 }
  - { offset: 0x141D5, size: 0x8, addend: 0x0, symName: __ZZN7testing8internal11MatcherBaseIRKmE9GetVTableINS4_11ValuePolicyINS0_9EqMatcherIiEELb1EEEEEPKNS4_6VTableEvE7kVTable, symObjAddr: 0x75F00, symBinAddr: 0x1000A9540, symSize: 0x0 }
  - { offset: 0x141FF, size: 0x8, addend: 0x0, symName: _.str.88, symObjAddr: 0x56E80, symBinAddr: 0x10008BDA0, symSize: 0x0 }
  - { offset: 0x14212, size: 0x8, addend: 0x0, symName: _.str.89, symObjAddr: 0x56EA0, symBinAddr: 0x10008BDC0, symSize: 0x0 }
  - { offset: 0x14225, size: 0x8, addend: 0x0, symName: _.str.91, symObjAddr: 0x56EC0, symBinAddr: 0x10008BDE0, symSize: 0x0 }
  - { offset: 0x1423B, size: 0x8, addend: 0x0, symName: _.str.96, symObjAddr: 0x56EE0, symBinAddr: 0x10008BE00, symSize: 0x0 }
  - { offset: 0x1425A, size: 0x8, addend: 0x0, symName: _.str.99, symObjAddr: 0x56F40, symBinAddr: 0x10008BE60, symSize: 0x0 }
  - { offset: 0x14277, size: 0x8, addend: 0x0, symName: _.str.102, symObjAddr: 0x56F60, symBinAddr: 0x10008BE80, symSize: 0x0 }
  - { offset: 0x14296, size: 0x8, addend: 0x0, symName: _.str.104, symObjAddr: 0x56F80, symBinAddr: 0x10008BEA0, symSize: 0x0 }
  - { offset: 0x142A9, size: 0x8, addend: 0x0, symName: _.str.106, symObjAddr: 0x56FA0, symBinAddr: 0x10008BEC0, symSize: 0x0 }
  - { offset: 0x14646, size: 0x8, addend: 0x0, symName: __ZN7testing8internal11MatcherBaseIRKPN7prqueueIiE4NODEEE9GetVTableINS8_11ValuePolicyINS0_9EqMatcherIDnEELb1EEEEEPKNS8_6VTableEv, symObjAddr: 0x34D0C, symBinAddr: 0x100037464, symSize: 0x64 }
  - { offset: 0x1466B, size: 0x8, addend: 0x0, symName: __ZZN7testing8internal11MatcherBaseIRKPN7prqueueIiE4NODEEE9GetVTableINS8_11ValuePolicyINS0_9EqMatcherIDnEELb1EEEEEPKNS8_6VTableEvE7kVTable, symObjAddr: 0x76038, symBinAddr: 0x1000A9678, symSize: 0x0 }
  - { offset: 0x14695, size: 0x8, addend: 0x0, symName: _.str.108, symObjAddr: 0x56FC0, symBinAddr: 0x10008BEE0, symSize: 0x0 }
  - { offset: 0x146A6, size: 0x8, addend: 0x0, symName: _.str.109, symObjAddr: 0x56FE0, symBinAddr: 0x10008BF00, symSize: 0x0 }
  - { offset: 0x146CF, size: 0x8, addend: 0x0, symName: __ZN7testing8internal11MatcherBaseIRKPN7prqueueIiE4NODEEE9GetVTableINS8_11ValuePolicyINS0_9NeMatcherIDnEELb1EEEEEPKNS8_6VTableEv, symObjAddr: 0x382AC, symBinAddr: 0x10003AA04, symSize: 0x64 }
  - { offset: 0x146F4, size: 0x8, addend: 0x0, symName: __ZZN7testing8internal11MatcherBaseIRKPN7prqueueIiE4NODEEE9GetVTableINS8_11ValuePolicyINS0_9NeMatcherIDnEELb1EEEEEPKNS8_6VTableEvE7kVTable, symObjAddr: 0x76088, symBinAddr: 0x1000A96C8, symSize: 0x0 }
  - { offset: 0x14783, size: 0x8, addend: 0x0, symName: __ZN7testing8internal11MatcherBaseIRKiE9GetVTableINS4_11ValuePolicyINS0_9EqMatcherIiEELb1EEEEEPKNS4_6VTableEv, symObjAddr: 0x3BDA0, symBinAddr: 0x10003E4F8, symSize: 0x64 }
  - { offset: 0x147A8, size: 0x8, addend: 0x0, symName: __ZZN7testing8internal11MatcherBaseIRKiE9GetVTableINS4_11ValuePolicyINS0_9EqMatcherIiEELb1EEEEEPKNS4_6VTableEvE7kVTable, symObjAddr: 0x76148, symBinAddr: 0x1000A9788, symSize: 0x0 }
  - { offset: 0x147D0, size: 0x8, addend: 0x0, symName: _.str.110, symObjAddr: 0x57000, symBinAddr: 0x10008BF20, symSize: 0x0 }
  - { offset: 0x14872, size: 0x8, addend: 0x0, symName: __ZN7testing8internal11MatcherBaseIRKNSt3__112basic_stringIcNS2_11char_traitsIcEENS2_9allocatorIcEEEEE9GetVTableINSB_11ValuePolicyINS0_9EqMatcherIPKcEELb1EEEEEPKNSB_6VTableEv, symObjAddr: 0x42500, symBinAddr: 0x100044C58, symSize: 0x64 }
  - { offset: 0x14897, size: 0x8, addend: 0x0, symName: __ZZN7testing8internal11MatcherBaseIRKNSt3__112basic_stringIcNS2_11char_traitsIcEENS2_9allocatorIcEEEEE9GetVTableINSB_11ValuePolicyINS0_9EqMatcherIPKcEELb1EEEEEPKNSB_6VTableEvE7kVTable, symObjAddr: 0x76208, symBinAddr: 0x1000A9848, symSize: 0x0 }
  - { offset: 0x14BC4, size: 0x8, addend: 0x0, symName: __ZN7testing8internal11MatcherBaseIRKPN7prqueueINSt3__112basic_stringIcNS3_11char_traitsIcEENS3_9allocatorIcEEEEE4NODEEE9GetVTableINSF_11ValuePolicyINS0_9NeMatcherIDnEELb1EEEEEPKNSF_6VTableEv, symObjAddr: 0x48AC4, symBinAddr: 0x10004B21C, symSize: 0x64 }
  - { offset: 0x14BE9, size: 0x8, addend: 0x0, symName: __ZZN7testing8internal11MatcherBaseIRKPN7prqueueINSt3__112basic_stringIcNS3_11char_traitsIcEENS3_9allocatorIcEEEEE4NODEEE9GetVTableINSF_11ValuePolicyINS0_9NeMatcherIDnEELb1EEEEEPKNSF_6VTableEvE7kVTable, symObjAddr: 0x762D8, symBinAddr: 0x1000A9918, symSize: 0x0 }
  - { offset: 0x14C9D, size: 0x8, addend: 0x0, symName: __ZN7testing8internal11MatcherBaseIRKbE9GetVTableINS4_11ValuePolicyINS0_9EqMatcherIbEELb1EEEEEPKNS4_6VTableEv, symObjAddr: 0x4FE3C, symBinAddr: 0x100052594, symSize: 0x64 }
  - { offset: 0x14CC2, size: 0x8, addend: 0x0, symName: __ZZN7testing8internal11MatcherBaseIRKbE9GetVTableINS4_11ValuePolicyINS0_9EqMatcherIbEELb1EEEEEPKNS4_6VTableEvE7kVTable, symObjAddr: 0x763C8, symBinAddr: 0x1000A9A08, symSize: 0x0 }
  - { offset: 0x14CEC, size: 0x8, addend: 0x0, symName: _.str.113, symObjAddr: 0x57020, symBinAddr: 0x10008BF40, symSize: 0x0 }
  - { offset: 0x14CFF, size: 0x8, addend: 0x0, symName: _.str.114, symObjAddr: 0x57040, symBinAddr: 0x10008BF60, symSize: 0x0 }
  - { offset: 0x14E04, size: 0x8, addend: 0x0, symName: __ZNSt3__112basic_stringIcNS_11char_traitsIcEENS_9allocatorIcEEEC1B8ne180100ILi0EEEPKc, symObjAddr: 0x0, symBinAddr: 0x100002758, symSize: 0x6C }
  - { offset: 0x14E43, size: 0x8, addend: 0x0, symName: __ZN7testing8internal12CodeLocationC1ENSt3__112basic_stringIcNS2_11char_traitsIcEENS2_9allocatorIcEEEEi, symObjAddr: 0x6C, symBinAddr: 0x1000027C4, symSize: 0x80 }
  - { offset: 0x14E93, size: 0x8, addend: 0x0, symName: __ZN7testing8internal16SuiteApiResolverINS_4TestEE19GetSetUpCaseOrSuiteEPKci, symObjAddr: 0xEC, symBinAddr: 0x100002844, symSize: 0x524 }
  - { offset: 0x14EE8, size: 0x8, addend: 0x0, symName: __ZN7testing8internal16SuiteApiResolverINS_4TestEE22GetTearDownCaseOrSuiteEPKci, symObjAddr: 0x610, symBinAddr: 0x100002D68, symSize: 0x514 }
  - { offset: 0x14F42, size: 0x8, addend: 0x0, symName: __ZN7testing8internal15TestFactoryImplI38PRQueueCore_Declare_and_Initalize_TestEC1Ev, symObjAddr: 0xB24, symBinAddr: 0x10000327C, symSize: 0x64 }
  - { offset: 0x14F6F, size: 0x8, addend: 0x0, symName: __ZN7testing8internal12CodeLocationD1Ev, symObjAddr: 0xB88, symBinAddr: 0x1000032E0, symSize: 0x64 }
  - { offset: 0x14F9C, size: 0x8, addend: 0x0, symName: __ZN38PRQueueCore_Declare_and_Initalize_Test8TestBodyEv, symObjAddr: 0xBEC, symBinAddr: 0x100003344, symSize: 0x1F6C }
  - { offset: 0x150CE, size: 0x8, addend: 0x0, symName: __ZN7prqueueIiEC1Ev, symObjAddr: 0x2B58, symBinAddr: 0x1000052B0, symSize: 0x6C }
  - { offset: 0x15431, size: 0x8, addend: 0x0, symName: __ZNK7testing8internal29PredicateFormatterFromMatcherINS0_9EqMatcherIiEEEclImEENS_15AssertionResultEPKcRKT_, symObjAddr: 0x2F44, symBinAddr: 0x10000569C, symSize: 0xD08 }
  - { offset: 0x154BB, size: 0x8, addend: 0x0, symName: __ZNK7prqueueIiE4sizeEv, symObjAddr: 0x3C4C, symBinAddr: 0x1000063A4, symSize: 0xA0 }
  - { offset: 0x154E1, size: 0x8, addend: 0x0, symName: __ZNK7testing15AssertionResultcvbEv, symObjAddr: 0x3CEC, symBinAddr: 0x100006444, symSize: 0xE8 }
  - { offset: 0x15507, size: 0x8, addend: 0x0, symName: __ZNK7testing15AssertionResult15failure_messageEv, symObjAddr: 0x3DD4, symBinAddr: 0x10000652C, symSize: 0x5C }
  - { offset: 0x1552D, size: 0x8, addend: 0x0, symName: __ZN7testing7MessageD1Ev, symObjAddr: 0x3E30, symBinAddr: 0x100006588, symSize: 0x64 }
  - { offset: 0x15559, size: 0x8, addend: 0x0, symName: __ZN7testing15AssertionResultD1Ev, symObjAddr: 0x3E94, symBinAddr: 0x1000065EC, symSize: 0x6C }
  - { offset: 0x1558F, size: 0x8, addend: 0x0, symName: __ZNK7testing8internal29PredicateFormatterFromMatcherINS0_9EqMatcherIDnEEEclIPN7prqueueIiE4NODEEEENS_15AssertionResultEPKcRKT_, symObjAddr: 0x42AC, symBinAddr: 0x100006A04, symSize: 0xD08 }
  - { offset: 0x15619, size: 0x8, addend: 0x0, symName: __ZN7prqueueIiE7getRootEv, symObjAddr: 0x4FB4, symBinAddr: 0x10000770C, symSize: 0x9C }
  - { offset: 0x1563F, size: 0x8, addend: 0x0, symName: __ZN7prqueueIiE7enqueueEii, symObjAddr: 0x5050, symBinAddr: 0x1000077A8, symSize: 0xB80 }
  - { offset: 0x156C3, size: 0x8, addend: 0x0, symName: __ZNK7testing8internal29PredicateFormatterFromMatcherINS0_9NeMatcherIDnEEEclIPN7prqueueIiE4NODEEEENS_15AssertionResultEPKcRKT_, symObjAddr: 0x5F7C, symBinAddr: 0x1000086D4, symSize: 0xD08 }
  - { offset: 0x1574D, size: 0x8, addend: 0x0, symName: __ZNK7testing8internal29PredicateFormatterFromMatcherINS0_9EqMatcherIiEEEclIiEENS_15AssertionResultEPKcRKT_, symObjAddr: 0x6C84, symBinAddr: 0x1000093DC, symSize: 0xD08 }
  - { offset: 0x157D7, size: 0x8, addend: 0x0, symName: __ZN7prqueueIiE5clearEv, symObjAddr: 0x798C, symBinAddr: 0x10000A0E4, symSize: 0x100 }
  - { offset: 0x157FD, size: 0x8, addend: 0x0, symName: __ZN7prqueueIiED1Ev, symObjAddr: 0x7A8C, symBinAddr: 0x10000A1E4, symSize: 0x64 }
  - { offset: 0x1582C, size: 0x8, addend: 0x0, symName: __ZN7testing8internal15TestFactoryImplI37PRQueueUsing_Adding_and_Removing_TestEC1Ev, symObjAddr: 0x7AF0, symBinAddr: 0x10000A248, symSize: 0x64 }
  - { offset: 0x15859, size: 0x8, addend: 0x0, symName: __ZN37PRQueueUsing_Adding_and_Removing_Test8TestBodyEv, symObjAddr: 0x7B54, symBinAddr: 0x10000A2AC, symSize: 0x15FC }
  - { offset: 0x15928, size: 0x8, addend: 0x0, symName: __ZN7prqueueINSt3__112basic_stringIcNS0_11char_traitsIcEENS0_9allocatorIcEEEEEC1Ev, symObjAddr: 0x9150, symBinAddr: 0x10000B8A8, symSize: 0x64 }
  - { offset: 0x15952, size: 0x8, addend: 0x0, symName: __ZN7prqueueINSt3__112basic_stringIcNS0_11char_traitsIcEENS0_9allocatorIcEEEEE7enqueueES6_i, symObjAddr: 0x91B4, symBinAddr: 0x10000B90C, symSize: 0xC84 }
  - { offset: 0x159D9, size: 0x8, addend: 0x0, symName: __ZNK7testing8internal29PredicateFormatterFromMatcherINS0_9EqMatcherIPKcEEEclINSt3__112basic_stringIcNS8_11char_traitsIcEENS8_9allocatorIcEEEEEENS_15AssertionResultES4_RKT_, symObjAddr: 0xA1E4, symBinAddr: 0x10000C93C, symSize: 0xD08 }
  - { offset: 0x15A63, size: 0x8, addend: 0x0, symName: __ZNK7prqueueINSt3__112basic_stringIcNS0_11char_traitsIcEENS0_9allocatorIcEEEEE9as_stringEv, symObjAddr: 0xAEEC, symBinAddr: 0x10000D644, symSize: 0x450 }
  - { offset: 0x15A9D, size: 0x8, addend: 0x0, symName: __ZNK7prqueueINSt3__112basic_stringIcNS0_11char_traitsIcEENS0_9allocatorIcEEEEE4peekEv, symObjAddr: 0xB33C, symBinAddr: 0x10000DA94, symSize: 0x5AC }
  - { offset: 0x15AF6, size: 0x8, addend: 0x0, symName: __ZNK7prqueueINSt3__112basic_stringIcNS0_11char_traitsIcEENS0_9allocatorIcEEEEE4sizeEv, symObjAddr: 0xB8E8, symBinAddr: 0x10000E040, symSize: 0xA0 }
  - { offset: 0x15B1C, size: 0x8, addend: 0x0, symName: __ZN7prqueueINSt3__112basic_stringIcNS0_11char_traitsIcEENS0_9allocatorIcEEEEE7dequeueEv, symObjAddr: 0xB988, symBinAddr: 0x10000E0E0, symSize: 0x1060 }
  - { offset: 0x15B8D, size: 0x8, addend: 0x0, symName: __ZN7prqueueINSt3__112basic_stringIcNS0_11char_traitsIcEENS0_9allocatorIcEEEEED1Ev, symObjAddr: 0xC9E8, symBinAddr: 0x10000F140, symSize: 0x64 }
  - { offset: 0x15BBC, size: 0x8, addend: 0x0, symName: __ZN7testing8internal15TestFactoryImplI41PRQueueDuplicates_Duplicates_Allowed_TestEC1Ev, symObjAddr: 0xCA4C, symBinAddr: 0x10000F1A4, symSize: 0x64 }
  - { offset: 0x15BE9, size: 0x8, addend: 0x0, symName: __ZN41PRQueueDuplicates_Duplicates_Allowed_Test8TestBodyEv, symObjAddr: 0xCAB0, symBinAddr: 0x10000F208, symSize: 0x2E84 }
  - { offset: 0x15D99, size: 0x8, addend: 0x0, symName: __ZNK7testing8internal29PredicateFormatterFromMatcherINS0_9NeMatcherIDnEEEclIPN7prqueueINSt3__112basic_stringIcNS7_11char_traitsIcEENS7_9allocatorIcEEEEE4NODEEEENS_15AssertionResultEPKcRKT_, symObjAddr: 0xF934, symBinAddr: 0x10001208C, symSize: 0xD08 }
  - { offset: 0x15E23, size: 0x8, addend: 0x0, symName: __ZN7prqueueINSt3__112basic_stringIcNS0_11char_traitsIcEENS0_9allocatorIcEEEEE7getRootEv, symObjAddr: 0x1063C, symBinAddr: 0x100012D94, symSize: 0x9C }
  - { offset: 0x15E4E, size: 0x8, addend: 0x0, symName: __ZN7testing8internal15TestFactoryImplI36PRQueueCopying_Correctly_Copied_TestEC1Ev, symObjAddr: 0x106D8, symBinAddr: 0x100012E30, symSize: 0x64 }
  - { offset: 0x15E7B, size: 0x8, addend: 0x0, symName: __ZN36PRQueueCopying_Correctly_Copied_Test8TestBodyEv, symObjAddr: 0x1073C, symBinAddr: 0x100012E94, symSize: 0x20B0 }
  - { offset: 0x15FBB, size: 0x8, addend: 0x0, symName: __ZN7prqueueINSt3__112basic_stringIcNS0_11char_traitsIcEENS0_9allocatorIcEEEEEaSERKS7_, symObjAddr: 0x127EC, symBinAddr: 0x100014F44, symSize: 0x354 }
  - { offset: 0x15FF0, size: 0x8, addend: 0x0, symName: __ZN7prqueueINSt3__112basic_stringIcNS0_11char_traitsIcEENS0_9allocatorIcEEEEEC1ERKS7_, symObjAddr: 0x12B40, symBinAddr: 0x100015298, symSize: 0x6C }
  - { offset: 0x1602E, size: 0x8, addend: 0x0, symName: __ZN7testing8internal15TestFactoryImplI36PRQueueEquality_Operator_Equals_TestEC1Ev, symObjAddr: 0x12BAC, symBinAddr: 0x100015304, symSize: 0x64 }
  - { offset: 0x1605B, size: 0x8, addend: 0x0, symName: __ZN36PRQueueEquality_Operator_Equals_Test8TestBodyEv, symObjAddr: 0x12C10, symBinAddr: 0x100015368, symSize: 0xD78 }
  - { offset: 0x16109, size: 0x8, addend: 0x0, symName: __ZNK7testing8internal29PredicateFormatterFromMatcherINS0_9EqMatcherIbEEEclIbEENS_15AssertionResultEPKcRKT_, symObjAddr: 0x13D08, symBinAddr: 0x100016460, symSize: 0xCB8 }
  - { offset: 0x16193, size: 0x8, addend: 0x0, symName: __ZNK7prqueueINSt3__112basic_stringIcNS0_11char_traitsIcEENS0_9allocatorIcEEEEEeqERKS7_, symObjAddr: 0x149C0, symBinAddr: 0x100017118, symSize: 0x10C }
  - { offset: 0x161CD, size: 0x8, addend: 0x0, symName: __ZN7testing8internal15TestFactoryImplI35PRQueueIterator_begin_and_next_TestEC1Ev, symObjAddr: 0x14ACC, symBinAddr: 0x100017224, symSize: 0x64 }
  - { offset: 0x161FA, size: 0x8, addend: 0x0, symName: __ZN35PRQueueIterator_begin_and_next_Test8TestBodyEv, symObjAddr: 0x14B30, symBinAddr: 0x100017288, symSize: 0x54EC }
  - { offset: 0x16578, size: 0x8, addend: 0x0, symName: __ZNSt3__112basic_stringIcNS_11char_traitsIcEENS_9allocatorIcEEEC1B8ne180100Ev, symObjAddr: 0x1A01C, symBinAddr: 0x10001C774, symSize: 0x64 }
  - { offset: 0x165A2, size: 0x8, addend: 0x0, symName: __ZN7prqueueINSt3__112basic_stringIcNS0_11char_traitsIcEENS0_9allocatorIcEEEEE4nextERS6_Ri, symObjAddr: 0x1A080, symBinAddr: 0x10001C7D8, symSize: 0x18D8 }
  - { offset: 0x165E6, size: 0x8, addend: 0x0, symName: __ZN7prqueueINSt3__112basic_stringIcNS0_11char_traitsIcEENS0_9allocatorIcEEEEE5beginEv, symObjAddr: 0x1B958, symBinAddr: 0x10001E0B0, symSize: 0x340 }
  - { offset: 0x1660C, size: 0x8, addend: 0x0, symName: __ZN38PRQueueCore_Declare_and_Initalize_TestD1Ev, symObjAddr: 0x1BC98, symBinAddr: 0x10001E3F0, symSize: 0x64 }
  - { offset: 0x16636, size: 0x8, addend: 0x0, symName: __ZN38PRQueueCore_Declare_and_Initalize_TestD0Ev, symObjAddr: 0x1BCFC, symBinAddr: 0x10001E454, symSize: 0x64 }
  - { offset: 0x16660, size: 0x8, addend: 0x0, symName: __ZN7testing4Test5SetupEv, symObjAddr: 0x1BD60, symBinAddr: 0x10001E4B8, symSize: 0x58 }
  - { offset: 0x16686, size: 0x8, addend: 0x0, symName: __ZN37PRQueueUsing_Adding_and_Removing_TestD1Ev, symObjAddr: 0x1BDB8, symBinAddr: 0x10001E510, symSize: 0x64 }
  - { offset: 0x166B0, size: 0x8, addend: 0x0, symName: __ZN37PRQueueUsing_Adding_and_Removing_TestD0Ev, symObjAddr: 0x1BE1C, symBinAddr: 0x10001E574, symSize: 0x64 }
  - { offset: 0x166DA, size: 0x8, addend: 0x0, symName: __ZN41PRQueueDuplicates_Duplicates_Allowed_TestD1Ev, symObjAddr: 0x1BE80, symBinAddr: 0x10001E5D8, symSize: 0x64 }
  - { offset: 0x16704, size: 0x8, addend: 0x0, symName: __ZN41PRQueueDuplicates_Duplicates_Allowed_TestD0Ev, symObjAddr: 0x1BEE4, symBinAddr: 0x10001E63C, symSize: 0x64 }
  - { offset: 0x1672E, size: 0x8, addend: 0x0, symName: __ZN36PRQueueCopying_Correctly_Copied_TestD1Ev, symObjAddr: 0x1BF48, symBinAddr: 0x10001E6A0, symSize: 0x64 }
  - { offset: 0x16758, size: 0x8, addend: 0x0, symName: __ZN36PRQueueCopying_Correctly_Copied_TestD0Ev, symObjAddr: 0x1BFAC, symBinAddr: 0x10001E704, symSize: 0x64 }
  - { offset: 0x16782, size: 0x8, addend: 0x0, symName: __ZN36PRQueueEquality_Operator_Equals_TestD1Ev, symObjAddr: 0x1C010, symBinAddr: 0x10001E768, symSize: 0x64 }
  - { offset: 0x167AC, size: 0x8, addend: 0x0, symName: __ZN36PRQueueEquality_Operator_Equals_TestD0Ev, symObjAddr: 0x1C074, symBinAddr: 0x10001E7CC, symSize: 0x64 }
  - { offset: 0x167D6, size: 0x8, addend: 0x0, symName: __ZN35PRQueueIterator_begin_and_next_TestD1Ev, symObjAddr: 0x1C0D8, symBinAddr: 0x10001E830, symSize: 0x64 }
  - { offset: 0x16800, size: 0x8, addend: 0x0, symName: __ZN35PRQueueIterator_begin_and_next_TestD0Ev, symObjAddr: 0x1C13C, symBinAddr: 0x10001E894, symSize: 0x64 }
  - { offset: 0x1682A, size: 0x8, addend: 0x0, symName: __ZNSt3__112basic_stringIcNS_11char_traitsIcEENS_9allocatorIcEEEC2B8ne180100ILi0EEEPKc, symObjAddr: 0x1C1A0, symBinAddr: 0x10001E8F8, symSize: 0x244 }
  - { offset: 0x16871, size: 0x8, addend: 0x0, symName: __ZNSt3__117__compressed_pairINS_12basic_stringIcNS_11char_traitsIcEENS_9allocatorIcEEE5__repES5_EC1B8ne180100INS_18__default_init_tagESA_EEOT_OT0_, symObjAddr: 0x1C3E4, symBinAddr: 0x10001EB3C, symSize: 0x7C }
  - { offset: 0x168C9, size: 0x8, addend: 0x0, symName: __ZNSt3__111char_traitsIcE6lengthB8ne180100EPKc, symObjAddr: 0x1C460, symBinAddr: 0x10001EBB8, symSize: 0x40 }
  - { offset: 0x168EC, size: 0x8, addend: 0x0, symName: __ZNSt3__117__compressed_pairINS_12basic_stringIcNS_11char_traitsIcEENS_9allocatorIcEEE5__repES5_EC2B8ne180100INS_18__default_init_tagESA_EEOT_OT0_, symObjAddr: 0x1C4A0, symBinAddr: 0x10001EBF8, symSize: 0xC8 }
  - { offset: 0x16944, size: 0x8, addend: 0x0, symName: __ZNSt3__122__compressed_pair_elemINS_12basic_stringIcNS_11char_traitsIcEENS_9allocatorIcEEE5__repELi0ELb0EEC2B8ne180100ENS_18__default_init_tagE, symObjAddr: 0x1C568, symBinAddr: 0x10001ECC0, symSize: 0x5C }
  - { offset: 0x16979, size: 0x8, addend: 0x0, symName: __ZNSt3__122__compressed_pair_elemINS_9allocatorIcEELi1ELb1EEC2B8ne180100ENS_18__default_init_tagE, symObjAddr: 0x1C5C4, symBinAddr: 0x10001ED1C, symSize: 0x70 }
  - { offset: 0x169AE, size: 0x8, addend: 0x0, symName: __ZNSt3__19allocatorIcEC2B8ne180100Ev, symObjAddr: 0x1C634, symBinAddr: 0x10001ED8C, symSize: 0x70 }
  - { offset: 0x169D8, size: 0x8, addend: 0x0, symName: __ZNSt3__116__non_trivial_ifILb1ENS_9allocatorIcEEEC2B8ne180100Ev, symObjAddr: 0x1C6A4, symBinAddr: 0x10001EDFC, symSize: 0x50 }
  - { offset: 0x16A02, size: 0x8, addend: 0x0, symName: __ZN7testing8internal12CodeLocationC2ENSt3__112basic_stringIcNS2_11char_traitsIcEENS2_9allocatorIcEEEEi, symObjAddr: 0x1C728, symBinAddr: 0x10001EE80, symSize: 0x128 }
  - { offset: 0x16A4B, size: 0x8, addend: 0x0, symName: __ZNSt3__112basic_stringIcNS_11char_traitsIcEENS_9allocatorIcEEEC1B8ne180100EOS5_, symObjAddr: 0x1C850, symBinAddr: 0x10001EFA8, symSize: 0x6C }
  - { offset: 0x16A84, size: 0x8, addend: 0x0, symName: __ZNSt3__112basic_stringIcNS_11char_traitsIcEENS_9allocatorIcEEEC2B8ne180100EOS5_, symObjAddr: 0x1C8BC, symBinAddr: 0x10001F014, symSize: 0x334 }
  - { offset: 0x16AF0, size: 0x8, addend: 0x0, symName: __ZZNSt3__112basic_stringIcNS_11char_traitsIcEENS_9allocatorIcEEEC1B8ne180100EOS5_ENKUlRS5_E_clES7_, symObjAddr: 0x1CBF0, symBinAddr: 0x10001F348, symSize: 0xE8 }
  - { offset: 0x16B29, size: 0x8, addend: 0x0, symName: __ZNSt3__117__compressed_pairINS_12basic_stringIcNS_11char_traitsIcEENS_9allocatorIcEEE5__repES5_E5firstB8ne180100Ev, symObjAddr: 0x1CCD8, symBinAddr: 0x10001F430, symSize: 0xEC }
  - { offset: 0x16B4F, size: 0x8, addend: 0x0, symName: __ZNKSt3__112basic_stringIcNS_11char_traitsIcEENS_9allocatorIcEEE14__annotate_newB8ne180100Em, symObjAddr: 0x1CDC4, symBinAddr: 0x10001F51C, symSize: 0x58 }
  - { offset: 0x16B84, size: 0x8, addend: 0x0, symName: __ZNKSt3__112basic_stringIcNS_11char_traitsIcEENS_9allocatorIcEEE9__is_longB8ne180100Ev, symObjAddr: 0x1CE1C, symBinAddr: 0x10001F574, symSize: 0x1B4 }
  - { offset: 0x16BAA, size: 0x8, addend: 0x0, symName: __ZNKSt3__112basic_stringIcNS_11char_traitsIcEENS_9allocatorIcEEE4sizeB8ne180100Ev, symObjAddr: 0x1CFD0, symBinAddr: 0x10001F728, symSize: 0x88 }
  - { offset: 0x16BD0, size: 0x8, addend: 0x0, symName: __ZNKSt3__112basic_stringIcNS_11char_traitsIcEENS_9allocatorIcEEE17__annotate_deleteB8ne180100Ev, symObjAddr: 0x1D058, symBinAddr: 0x10001F7B0, symSize: 0x54 }
  - { offset: 0x16BF6, size: 0x8, addend: 0x0, symName: __ZNSt3__122__compressed_pair_elemINS_12basic_stringIcNS_11char_traitsIcEENS_9allocatorIcEEE5__repELi0ELb0EE5__getB8ne180100Ev, symObjAddr: 0x1D0AC, symBinAddr: 0x10001F804, symSize: 0x8C }
  - { offset: 0x16C1C, size: 0x8, addend: 0x0, symName: __ZNKSt3__117__compressed_pairINS_12basic_stringIcNS_11char_traitsIcEENS_9allocatorIcEEE5__repES5_E5firstB8ne180100Ev, symObjAddr: 0x1D138, symBinAddr: 0x10001F890, symSize: 0xEC }
  - { offset: 0x16C42, size: 0x8, addend: 0x0, symName: __ZNKSt3__122__compressed_pair_elemINS_12basic_stringIcNS_11char_traitsIcEENS_9allocatorIcEEE5__repELi0ELb0EE5__getB8ne180100Ev, symObjAddr: 0x1D224, symBinAddr: 0x10001F97C, symSize: 0x8C }
  - { offset: 0x16C68, size: 0x8, addend: 0x0, symName: __ZNKSt3__112basic_stringIcNS_11char_traitsIcEENS_9allocatorIcEEE15__get_long_sizeB8ne180100Ev, symObjAddr: 0x1D2B0, symBinAddr: 0x10001FA08, symSize: 0x1C8 }
  - { offset: 0x16C8E, size: 0x8, addend: 0x0, symName: __ZNKSt3__112basic_stringIcNS_11char_traitsIcEENS_9allocatorIcEEE16__get_short_sizeB8ne180100Ev, symObjAddr: 0x1D478, symBinAddr: 0x10001FBD0, symSize: 0x1B4 }
  - { offset: 0x16CB4, size: 0x8, addend: 0x0, symName: __ZN7testing8internal15TestFactoryImplI38PRQueueCore_Declare_and_Initalize_TestEC2Ev, symObjAddr: 0x1D62C, symBinAddr: 0x10001FD84, symSize: 0xF8 }
  - { offset: 0x16CE1, size: 0x8, addend: 0x0, symName: __ZN7testing8internal15TestFactoryBaseC2Ev, symObjAddr: 0x1D724, symBinAddr: 0x10001FE7C, symSize: 0xB4 }
  - { offset: 0x16D0B, size: 0x8, addend: 0x0, symName: __ZN7testing8internal15TestFactoryImplI38PRQueueCore_Declare_and_Initalize_TestED1Ev, symObjAddr: 0x1D7D8, symBinAddr: 0x10001FF30, symSize: 0x64 }
  - { offset: 0x16D38, size: 0x8, addend: 0x0, symName: __ZN7testing8internal15TestFactoryImplI38PRQueueCore_Declare_and_Initalize_TestED0Ev, symObjAddr: 0x1D83C, symBinAddr: 0x10001FF94, symSize: 0x64 }
  - { offset: 0x16D65, size: 0x8, addend: 0x0, symName: __ZN7testing8internal15TestFactoryImplI38PRQueueCore_Declare_and_Initalize_TestE10CreateTestEv, symObjAddr: 0x1D8A0, symBinAddr: 0x10001FFF8, symSize: 0xF8 }
  - { offset: 0x16D8B, size: 0x8, addend: 0x0, symName: __ZN7testing8internal15TestFactoryBaseD1Ev, symObjAddr: 0x1D998, symBinAddr: 0x1000200F0, symSize: 0x54 }
  - { offset: 0x16DB5, size: 0x8, addend: 0x0, symName: __ZN7testing8internal15TestFactoryBaseD0Ev, symObjAddr: 0x1D9EC, symBinAddr: 0x100020144, symSize: 0x50 }
  - { offset: 0x16DDF, size: 0x8, addend: 0x0, symName: __ZN7testing8internal15TestFactoryImplI38PRQueueCore_Declare_and_Initalize_TestED2Ev, symObjAddr: 0x1DA3C, symBinAddr: 0x100020194, symSize: 0x64 }
  - { offset: 0x16E0C, size: 0x8, addend: 0x0, symName: __ZN7testing8internal15TestFactoryBaseD2Ev, symObjAddr: 0x1DAA0, symBinAddr: 0x1000201F8, symSize: 0x5C }
  - { offset: 0x16E36, size: 0x8, addend: 0x0, symName: __ZN38PRQueueCore_Declare_and_Initalize_TestC1Ev, symObjAddr: 0x1DAFC, symBinAddr: 0x100020254, symSize: 0x64 }
  - { offset: 0x16E60, size: 0x8, addend: 0x0, symName: __ZN38PRQueueCore_Declare_and_Initalize_TestC2Ev, symObjAddr: 0x1DB60, symBinAddr: 0x1000202B8, symSize: 0xF8 }
  - { offset: 0x16E8A, size: 0x8, addend: 0x0, symName: __ZN7testing8internal12CodeLocationD2Ev, symObjAddr: 0x1DC58, symBinAddr: 0x1000203B0, symSize: 0x64 }
  - { offset: 0x16EB7, size: 0x8, addend: 0x0, symName: __ZNK7testing15AssertionResult7messageEv, symObjAddr: 0x1DCBC, symBinAddr: 0x100020414, symSize: 0x158 }
  - { offset: 0x16EDD, size: 0x8, addend: 0x0, symName: __ZNKSt3__110unique_ptrINS_12basic_stringIcNS_11char_traitsIcEENS_9allocatorIcEEEENS_14default_deleteIS6_EEEptB8ne180100Ev, symObjAddr: 0x1DE68, symBinAddr: 0x1000205C0, symSize: 0x10C }
  - { offset: 0x16F03, size: 0x8, addend: 0x0, symName: __ZNKSt3__112basic_stringIcNS_11char_traitsIcEENS_9allocatorIcEEE5c_strB8ne180100Ev, symObjAddr: 0x1DF74, symBinAddr: 0x1000206CC, symSize: 0x5C }
  - { offset: 0x16F29, size: 0x8, addend: 0x0, symName: __ZNKSt3__110unique_ptrINS_12basic_stringIcNS_11char_traitsIcEENS_9allocatorIcEEEENS_14default_deleteIS6_EEEcvbB8ne180100Ev, symObjAddr: 0x1DFD0, symBinAddr: 0x100020728, symSize: 0x114 }
  - { offset: 0x16F4F, size: 0x8, addend: 0x0, symName: __ZNKSt3__117__compressed_pairIPNS_12basic_stringIcNS_11char_traitsIcEENS_9allocatorIcEEEENS_14default_deleteIS6_EEE5firstB8ne180100Ev, symObjAddr: 0x1E0E4, symBinAddr: 0x10002083C, symSize: 0xEC }
  - { offset: 0x16F75, size: 0x8, addend: 0x0, symName: __ZNKSt3__122__compressed_pair_elemIPNS_12basic_stringIcNS_11char_traitsIcEENS_9allocatorIcEEEELi0ELb0EE5__getB8ne180100Ev, symObjAddr: 0x1E1D0, symBinAddr: 0x100020928, symSize: 0x8C }
  - { offset: 0x16F9B, size: 0x8, addend: 0x0, symName: __ZNKSt3__112basic_stringIcNS_11char_traitsIcEENS_9allocatorIcEEE4dataB8ne180100Ev, symObjAddr: 0x1E25C, symBinAddr: 0x1000209B4, symSize: 0x68 }
  - { offset: 0x16FC1, size: 0x8, addend: 0x0, symName: __ZNKSt3__112basic_stringIcNS_11char_traitsIcEENS_9allocatorIcEEE13__get_pointerB8ne180100Ev, symObjAddr: 0x1E2D8, symBinAddr: 0x100020A30, symSize: 0x88 }
  - { offset: 0x16FE7, size: 0x8, addend: 0x0, symName: __ZNKSt3__112basic_stringIcNS_11char_traitsIcEENS_9allocatorIcEEE18__get_long_pointerB8ne180100Ev, symObjAddr: 0x1E360, symBinAddr: 0x100020AB8, symSize: 0x1C0 }
  - { offset: 0x1700D, size: 0x8, addend: 0x0, symName: __ZNKSt3__112basic_stringIcNS_11char_traitsIcEENS_9allocatorIcEEE19__get_short_pointerB8ne180100Ev, symObjAddr: 0x1E520, symBinAddr: 0x100020C78, symSize: 0x17C }
  - { offset: 0x17033, size: 0x8, addend: 0x0, symName: __ZNSt3__114pointer_traitsIPKcE10pointer_toB8ne180100ERS1_, symObjAddr: 0x1E69C, symBinAddr: 0x100020DF4, symSize: 0x14 }
  - { offset: 0x17056, size: 0x8, addend: 0x0, symName: __ZN7testing7MessageD2Ev, symObjAddr: 0x1E6B0, symBinAddr: 0x100020E08, symSize: 0x64 }
  - { offset: 0x17082, size: 0x8, addend: 0x0, symName: __ZNSt3__110unique_ptrINS_18basic_stringstreamIcNS_11char_traitsIcEENS_9allocatorIcEEEENS_14default_deleteIS6_EEED1B8ne180100Ev, symObjAddr: 0x1E714, symBinAddr: 0x100020E6C, symSize: 0x64 }
  - { offset: 0x170AC, size: 0x8, addend: 0x0, symName: __ZNSt3__110unique_ptrINS_18basic_stringstreamIcNS_11char_traitsIcEENS_9allocatorIcEEEENS_14default_deleteIS6_EEED2B8ne180100Ev, symObjAddr: 0x1E778, symBinAddr: 0x100020ED0, symSize: 0x68 }
  - { offset: 0x170D6, size: 0x8, addend: 0x0, symName: __ZNSt3__110unique_ptrINS_18basic_stringstreamIcNS_11char_traitsIcEENS_9allocatorIcEEEENS_14default_deleteIS6_EEE5resetB8ne180100EPS6_, symObjAddr: 0x1E7E0, symBinAddr: 0x100020F38, symSize: 0x240 }
  - { offset: 0x1711A, size: 0x8, addend: 0x0, symName: __ZNSt3__117__compressed_pairIPNS_18basic_stringstreamIcNS_11char_traitsIcEENS_9allocatorIcEEEENS_14default_deleteIS6_EEE5firstB8ne180100Ev, symObjAddr: 0x1EA20, symBinAddr: 0x100021178, symSize: 0xEC }
  - { offset: 0x17140, size: 0x8, addend: 0x0, symName: __ZNSt3__117__compressed_pairIPNS_18basic_stringstreamIcNS_11char_traitsIcEENS_9allocatorIcEEEENS_14default_deleteIS6_EEE6secondB8ne180100Ev, symObjAddr: 0x1EB0C, symBinAddr: 0x100021264, symSize: 0xC4 }
  - { offset: 0x17166, size: 0x8, addend: 0x0, symName: __ZNKSt3__114default_deleteINS_18basic_stringstreamIcNS_11char_traitsIcEENS_9allocatorIcEEEEEclB8ne180100EPS6_, symObjAddr: 0x1EBD0, symBinAddr: 0x100021328, symSize: 0x1A4 }
  - { offset: 0x1719A, size: 0x8, addend: 0x0, symName: __ZNSt3__122__compressed_pair_elemIPNS_18basic_stringstreamIcNS_11char_traitsIcEENS_9allocatorIcEEEELi0ELb0EE5__getB8ne180100Ev, symObjAddr: 0x1ED74, symBinAddr: 0x1000214CC, symSize: 0x8C }
  - { offset: 0x171C0, size: 0x8, addend: 0x0, symName: __ZNSt3__122__compressed_pair_elemINS_14default_deleteINS_18basic_stringstreamIcNS_11char_traitsIcEENS_9allocatorIcEEEEEELi1ELb1EE5__getB8ne180100Ev, symObjAddr: 0x1EE00, symBinAddr: 0x100021558, symSize: 0x64 }
  - { offset: 0x171E6, size: 0x8, addend: 0x0, symName: __ZN7testing15AssertionResultD2Ev, symObjAddr: 0x1EE64, symBinAddr: 0x1000215BC, symSize: 0x68 }
  - { offset: 0x17212, size: 0x8, addend: 0x0, symName: __ZNSt3__110unique_ptrINS_12basic_stringIcNS_11char_traitsIcEENS_9allocatorIcEEEENS_14default_deleteIS6_EEED1B8ne180100Ev, symObjAddr: 0x1EECC, symBinAddr: 0x100021624, symSize: 0x64 }
  - { offset: 0x1723C, size: 0x8, addend: 0x0, symName: __ZNSt3__110unique_ptrINS_12basic_stringIcNS_11char_traitsIcEENS_9allocatorIcEEEENS_14default_deleteIS6_EEED2B8ne180100Ev, symObjAddr: 0x1EF30, symBinAddr: 0x100021688, symSize: 0x68 }
  - { offset: 0x17266, size: 0x8, addend: 0x0, symName: __ZNSt3__110unique_ptrINS_12basic_stringIcNS_11char_traitsIcEENS_9allocatorIcEEEENS_14default_deleteIS6_EEE5resetB8ne180100EPS6_, symObjAddr: 0x1EF98, symBinAddr: 0x1000216F0, symSize: 0x240 }
  - { offset: 0x172AA, size: 0x8, addend: 0x0, symName: __ZNSt3__117__compressed_pairIPNS_12basic_stringIcNS_11char_traitsIcEENS_9allocatorIcEEEENS_14default_deleteIS6_EEE5firstB8ne180100Ev, symObjAddr: 0x1F1D8, symBinAddr: 0x100021930, symSize: 0xEC }
  - { offset: 0x172D0, size: 0x8, addend: 0x0, symName: __ZNSt3__117__compressed_pairIPNS_12basic_stringIcNS_11char_traitsIcEENS_9allocatorIcEEEENS_14default_deleteIS6_EEE6secondB8ne180100Ev, symObjAddr: 0x1F2C4, symBinAddr: 0x100021A1C, symSize: 0xC4 }
  - { offset: 0x172F6, size: 0x8, addend: 0x0, symName: __ZNKSt3__114default_deleteINS_12basic_stringIcNS_11char_traitsIcEENS_9allocatorIcEEEEEclB8ne180100EPS6_, symObjAddr: 0x1F388, symBinAddr: 0x100021AE0, symSize: 0x9C }
  - { offset: 0x1732A, size: 0x8, addend: 0x0, symName: __ZNSt3__122__compressed_pair_elemIPNS_12basic_stringIcNS_11char_traitsIcEENS_9allocatorIcEEEELi0ELb0EE5__getB8ne180100Ev, symObjAddr: 0x1F424, symBinAddr: 0x100021B7C, symSize: 0x8C }
  - { offset: 0x17350, size: 0x8, addend: 0x0, symName: __ZNSt3__122__compressed_pair_elemINS_14default_deleteINS_12basic_stringIcNS_11char_traitsIcEENS_9allocatorIcEEEEEELi1ELb1EE5__getB8ne180100Ev, symObjAddr: 0x1F4B0, symBinAddr: 0x100021C08, symSize: 0x64 }
  - { offset: 0x17376, size: 0x8, addend: 0x0, symName: __ZN7testing8internal15TestFactoryImplI37PRQueueUsing_Adding_and_Removing_TestEC2Ev, symObjAddr: 0x1F514, symBinAddr: 0x100021C6C, symSize: 0xF8 }
  - { offset: 0x173A3, size: 0x8, addend: 0x0, symName: __ZN7testing8internal15TestFactoryImplI37PRQueueUsing_Adding_and_Removing_TestED1Ev, symObjAddr: 0x1F60C, symBinAddr: 0x100021D64, symSize: 0x64 }
  - { offset: 0x173D0, size: 0x8, addend: 0x0, symName: __ZN7testing8internal15TestFactoryImplI37PRQueueUsing_Adding_and_Removing_TestED0Ev, symObjAddr: 0x1F670, symBinAddr: 0x100021DC8, symSize: 0x64 }
  - { offset: 0x173FD, size: 0x8, addend: 0x0, symName: __ZN7testing8internal15TestFactoryImplI37PRQueueUsing_Adding_and_Removing_TestE10CreateTestEv, symObjAddr: 0x1F6D4, symBinAddr: 0x100021E2C, symSize: 0xF8 }
  - { offset: 0x17423, size: 0x8, addend: 0x0, symName: __ZN7testing8internal15TestFactoryImplI37PRQueueUsing_Adding_and_Removing_TestED2Ev, symObjAddr: 0x1F7CC, symBinAddr: 0x100021F24, symSize: 0x64 }
  - { offset: 0x17450, size: 0x8, addend: 0x0, symName: __ZN37PRQueueUsing_Adding_and_Removing_TestC1Ev, symObjAddr: 0x1F830, symBinAddr: 0x100021F88, symSize: 0x64 }
  - { offset: 0x1747A, size: 0x8, addend: 0x0, symName: __ZN37PRQueueUsing_Adding_and_Removing_TestC2Ev, symObjAddr: 0x1F894, symBinAddr: 0x100021FEC, symSize: 0xF8 }
  - { offset: 0x174A4, size: 0x8, addend: 0x0, symName: __ZN7testing8internal15TestFactoryImplI41PRQueueDuplicates_Duplicates_Allowed_TestEC2Ev, symObjAddr: 0x1F98C, symBinAddr: 0x1000220E4, symSize: 0xF8 }
  - { offset: 0x174D1, size: 0x8, addend: 0x0, symName: __ZN7testing8internal15TestFactoryImplI41PRQueueDuplicates_Duplicates_Allowed_TestED1Ev, symObjAddr: 0x1FA84, symBinAddr: 0x1000221DC, symSize: 0x64 }
  - { offset: 0x174FE, size: 0x8, addend: 0x0, symName: __ZN7testing8internal15TestFactoryImplI41PRQueueDuplicates_Duplicates_Allowed_TestED0Ev, symObjAddr: 0x1FAE8, symBinAddr: 0x100022240, symSize: 0x64 }
  - { offset: 0x1752B, size: 0x8, addend: 0x0, symName: __ZN7testing8internal15TestFactoryImplI41PRQueueDuplicates_Duplicates_Allowed_TestE10CreateTestEv, symObjAddr: 0x1FB4C, symBinAddr: 0x1000222A4, symSize: 0xF8 }
  - { offset: 0x17551, size: 0x8, addend: 0x0, symName: __ZN7testing8internal15TestFactoryImplI41PRQueueDuplicates_Duplicates_Allowed_TestED2Ev, symObjAddr: 0x1FC44, symBinAddr: 0x10002239C, symSize: 0x64 }
  - { offset: 0x1757E, size: 0x8, addend: 0x0, symName: __ZN41PRQueueDuplicates_Duplicates_Allowed_TestC1Ev, symObjAddr: 0x1FCA8, symBinAddr: 0x100022400, symSize: 0x64 }
  - { offset: 0x175A8, size: 0x8, addend: 0x0, symName: __ZN41PRQueueDuplicates_Duplicates_Allowed_TestC2Ev, symObjAddr: 0x1FD0C, symBinAddr: 0x100022464, symSize: 0xF8 }
  - { offset: 0x175D2, size: 0x8, addend: 0x0, symName: __ZN7testing8internal15TestFactoryImplI36PRQueueCopying_Correctly_Copied_TestEC2Ev, symObjAddr: 0x1FE04, symBinAddr: 0x10002255C, symSize: 0xF8 }
  - { offset: 0x175FF, size: 0x8, addend: 0x0, symName: __ZN7testing8internal15TestFactoryImplI36PRQueueCopying_Correctly_Copied_TestED1Ev, symObjAddr: 0x1FEFC, symBinAddr: 0x100022654, symSize: 0x64 }
  - { offset: 0x1762C, size: 0x8, addend: 0x0, symName: __ZN7testing8internal15TestFactoryImplI36PRQueueCopying_Correctly_Copied_TestED0Ev, symObjAddr: 0x1FF60, symBinAddr: 0x1000226B8, symSize: 0x64 }
  - { offset: 0x17659, size: 0x8, addend: 0x0, symName: __ZN7testing8internal15TestFactoryImplI36PRQueueCopying_Correctly_Copied_TestE10CreateTestEv, symObjAddr: 0x1FFC4, symBinAddr: 0x10002271C, symSize: 0xF8 }
  - { offset: 0x1767F, size: 0x8, addend: 0x0, symName: __ZN7testing8internal15TestFactoryImplI36PRQueueCopying_Correctly_Copied_TestED2Ev, symObjAddr: 0x200BC, symBinAddr: 0x100022814, symSize: 0x64 }
  - { offset: 0x176AC, size: 0x8, addend: 0x0, symName: __ZN36PRQueueCopying_Correctly_Copied_TestC1Ev, symObjAddr: 0x20120, symBinAddr: 0x100022878, symSize: 0x64 }
  - { offset: 0x176D6, size: 0x8, addend: 0x0, symName: __ZN36PRQueueCopying_Correctly_Copied_TestC2Ev, symObjAddr: 0x20184, symBinAddr: 0x1000228DC, symSize: 0xF8 }
  - { offset: 0x17700, size: 0x8, addend: 0x0, symName: __ZN7testing8internal15TestFactoryImplI36PRQueueEquality_Operator_Equals_TestEC2Ev, symObjAddr: 0x2027C, symBinAddr: 0x1000229D4, symSize: 0xF8 }
  - { offset: 0x1772D, size: 0x8, addend: 0x0, symName: __ZN7testing8internal15TestFactoryImplI36PRQueueEquality_Operator_Equals_TestED1Ev, symObjAddr: 0x20374, symBinAddr: 0x100022ACC, symSize: 0x64 }
  - { offset: 0x1775A, size: 0x8, addend: 0x0, symName: __ZN7testing8internal15TestFactoryImplI36PRQueueEquality_Operator_Equals_TestED0Ev, symObjAddr: 0x203D8, symBinAddr: 0x100022B30, symSize: 0x64 }
  - { offset: 0x17787, size: 0x8, addend: 0x0, symName: __ZN7testing8internal15TestFactoryImplI36PRQueueEquality_Operator_Equals_TestE10CreateTestEv, symObjAddr: 0x2043C, symBinAddr: 0x100022B94, symSize: 0xF8 }
  - { offset: 0x177AD, size: 0x8, addend: 0x0, symName: __ZN7testing8internal15TestFactoryImplI36PRQueueEquality_Operator_Equals_TestED2Ev, symObjAddr: 0x20534, symBinAddr: 0x100022C8C, symSize: 0x64 }
  - { offset: 0x177DA, size: 0x8, addend: 0x0, symName: __ZN36PRQueueEquality_Operator_Equals_TestC1Ev, symObjAddr: 0x20598, symBinAddr: 0x100022CF0, symSize: 0x64 }
  - { offset: 0x17804, size: 0x8, addend: 0x0, symName: __ZN36PRQueueEquality_Operator_Equals_TestC2Ev, symObjAddr: 0x205FC, symBinAddr: 0x100022D54, symSize: 0xF8 }
  - { offset: 0x1782E, size: 0x8, addend: 0x0, symName: __ZN7testing8internal15TestFactoryImplI35PRQueueIterator_begin_and_next_TestEC2Ev, symObjAddr: 0x206F4, symBinAddr: 0x100022E4C, symSize: 0xF8 }
  - { offset: 0x1785B, size: 0x8, addend: 0x0, symName: __ZN7testing8internal15TestFactoryImplI35PRQueueIterator_begin_and_next_TestED1Ev, symObjAddr: 0x207EC, symBinAddr: 0x100022F44, symSize: 0x64 }
  - { offset: 0x17888, size: 0x8, addend: 0x0, symName: __ZN7testing8internal15TestFactoryImplI35PRQueueIterator_begin_and_next_TestED0Ev, symObjAddr: 0x20850, symBinAddr: 0x100022FA8, symSize: 0x64 }
  - { offset: 0x178B5, size: 0x8, addend: 0x0, symName: __ZN7testing8internal15TestFactoryImplI35PRQueueIterator_begin_and_next_TestE10CreateTestEv, symObjAddr: 0x208B4, symBinAddr: 0x10002300C, symSize: 0xF8 }
  - { offset: 0x178DB, size: 0x8, addend: 0x0, symName: __ZN7testing8internal15TestFactoryImplI35PRQueueIterator_begin_and_next_TestED2Ev, symObjAddr: 0x209AC, symBinAddr: 0x100023104, symSize: 0x64 }
  - { offset: 0x17908, size: 0x8, addend: 0x0, symName: __ZN35PRQueueIterator_begin_and_next_TestC1Ev, symObjAddr: 0x20A10, symBinAddr: 0x100023168, symSize: 0x64 }
  - { offset: 0x17932, size: 0x8, addend: 0x0, symName: __ZN35PRQueueIterator_begin_and_next_TestC2Ev, symObjAddr: 0x20A74, symBinAddr: 0x1000231CC, symSize: 0xF8 }
  - { offset: 0x1795C, size: 0x8, addend: 0x0, symName: __ZNSt3__112basic_stringIcNS_11char_traitsIcEENS_9allocatorIcEEEC2B8ne180100Ev, symObjAddr: 0x20B6C, symBinAddr: 0x1000232C4, symSize: 0x240 }
  - { offset: 0x1798D, size: 0x8, addend: 0x0, symName: __ZNSt3__117__compressed_pairINS_12basic_stringIcNS_11char_traitsIcEENS_9allocatorIcEEE5__repES5_EC1B8ne180100INS_16__value_init_tagENS_18__default_init_tagEEEOT_OT0_, symObjAddr: 0x20DAC, symBinAddr: 0x100023504, symSize: 0x74 }
  - { offset: 0x179E5, size: 0x8, addend: 0x0, symName: __ZNSt3__117__compressed_pairINS_12basic_stringIcNS_11char_traitsIcEENS_9allocatorIcEEE5__repES5_EC2B8ne180100INS_16__value_init_tagENS_18__default_init_tagEEEOT_OT0_, symObjAddr: 0x20E20, symBinAddr: 0x100023578, symSize: 0xC8 }
  - { offset: 0x17A3D, size: 0x8, addend: 0x0, symName: __ZNSt3__122__compressed_pair_elemINS_12basic_stringIcNS_11char_traitsIcEENS_9allocatorIcEEE5__repELi0ELb0EEC2B8ne180100ENS_16__value_init_tagE, symObjAddr: 0x20EE8, symBinAddr: 0x100023640, symSize: 0x6C }
  - { offset: 0x17A72, size: 0x8, addend: 0x0, symName: __ZN38PRQueueCore_Declare_and_Initalize_TestD2Ev, symObjAddr: 0x20F54, symBinAddr: 0x1000236AC, symSize: 0x64 }
  - { offset: 0x17A9C, size: 0x8, addend: 0x0, symName: __ZN37PRQueueUsing_Adding_and_Removing_TestD2Ev, symObjAddr: 0x20FB8, symBinAddr: 0x100023710, symSize: 0x64 }
  - { offset: 0x17AC6, size: 0x8, addend: 0x0, symName: __ZN41PRQueueDuplicates_Duplicates_Allowed_TestD2Ev, symObjAddr: 0x2101C, symBinAddr: 0x100023774, symSize: 0x64 }
  - { offset: 0x17AF0, size: 0x8, addend: 0x0, symName: __ZN36PRQueueCopying_Correctly_Copied_TestD2Ev, symObjAddr: 0x21080, symBinAddr: 0x1000237D8, symSize: 0x64 }
  - { offset: 0x17B1A, size: 0x8, addend: 0x0, symName: __ZN36PRQueueEquality_Operator_Equals_TestD2Ev, symObjAddr: 0x210E4, symBinAddr: 0x10002383C, symSize: 0x64 }
  - { offset: 0x17B44, size: 0x8, addend: 0x0, symName: __ZN35PRQueueIterator_begin_and_next_TestD2Ev, symObjAddr: 0x21148, symBinAddr: 0x1000238A0, symSize: 0x6C }
  - { offset: 0x17B6E, size: 0x8, addend: 0x0, symName: __ZN7testing4Test13SetUpTestCaseEv, symObjAddr: 0x21200, symBinAddr: 0x100023958, symSize: 0xC }
  - { offset: 0x17B82, size: 0x8, addend: 0x0, symName: __ZN7testing4Test14SetUpTestSuiteEv, symObjAddr: 0x2120C, symBinAddr: 0x100023964, symSize: 0xC }
  - { offset: 0x17BB1, size: 0x8, addend: 0x0, symName: __ZN7testing8internal8GTestLog9GetStreamEv, symObjAddr: 0x212C8, symBinAddr: 0x100023A20, symSize: 0x64 }
  - { offset: 0x17BF2, size: 0x8, addend: 0x0, symName: __ZNKSt3__113basic_ostreamIcNS_11char_traitsIcEEE6sentrycvbB8ne180100Ev, symObjAddr: 0x221A4, symBinAddr: 0x1000248FC, symSize: 0xF0 }
  - { offset: 0x17C18, size: 0x8, addend: 0x0, symName: __ZNSt3__119ostreambuf_iteratorIcNS_11char_traitsIcEEEC1B8ne180100ERNS_13basic_ostreamIcS2_EE, symObjAddr: 0x22B34, symBinAddr: 0x10002528C, symSize: 0x6C }
  - { offset: 0x17C50, size: 0x8, addend: 0x0, symName: __ZNKSt3__18ios_base5flagsB8ne180100Ev, symObjAddr: 0x22BA0, symBinAddr: 0x1000252F8, symSize: 0x148 }
  - { offset: 0x17C78, size: 0x8, addend: 0x0, symName: __ZNKSt3__19basic_iosIcNS_11char_traitsIcEEE4fillB8ne180100Ev, symObjAddr: 0x22CE8, symBinAddr: 0x100025440, symSize: 0x364 }
  - { offset: 0x17CA0, size: 0x8, addend: 0x0, symName: __ZNKSt3__119ostreambuf_iteratorIcNS_11char_traitsIcEEE6failedB8ne180100Ev, symObjAddr: 0x2304C, symBinAddr: 0x1000257A4, symSize: 0xA4 }
  - { offset: 0x17CC6, size: 0x8, addend: 0x0, symName: __ZNSt3__19basic_iosIcNS_11char_traitsIcEEE8setstateB8ne180100Ej, symObjAddr: 0x230F0, symBinAddr: 0x100025848, symSize: 0x118 }
  - { offset: 0x17CFB, size: 0x8, addend: 0x0, symName: __ZNKSt3__18ios_base5widthB8ne180100Ev, symObjAddr: 0x23208, symBinAddr: 0x100025960, symSize: 0x124 }
  - { offset: 0x17D23, size: 0x8, addend: 0x0, symName: __ZNSt3__115basic_streambufIcNS_11char_traitsIcEEE5sputnB8ne180100EPKcl, symObjAddr: 0x2332C, symBinAddr: 0x100025A84, symSize: 0x17C }
  - { offset: 0x17D65, size: 0x8, addend: 0x0, symName: __ZNSt3__112basic_stringIcNS_11char_traitsIcEENS_9allocatorIcEEEC1B8ne180100Emc, symObjAddr: 0x234A8, symBinAddr: 0x100025C00, symSize: 0x74 }
  - { offset: 0x17DAD, size: 0x8, addend: 0x0, symName: __ZNSt3__112basic_stringIcNS_11char_traitsIcEENS_9allocatorIcEEE4dataB8ne180100Ev, symObjAddr: 0x2351C, symBinAddr: 0x100025C74, symSize: 0x60 }
  - { offset: 0x17DD3, size: 0x8, addend: 0x0, symName: __ZNSt3__18ios_base5widthB8ne180100El, symObjAddr: 0x2357C, symBinAddr: 0x100025CD4, symSize: 0x1D8 }
  - { offset: 0x17E19, size: 0x8, addend: 0x0, symName: __ZNSt3__112basic_stringIcNS_11char_traitsIcEENS_9allocatorIcEEEC2B8ne180100Emc, symObjAddr: 0x23754, symBinAddr: 0x100025EAC, symSize: 0x240 }
  - { offset: 0x17E64, size: 0x8, addend: 0x0, symName: __ZNSt3__112basic_stringIcNS_11char_traitsIcEENS_9allocatorIcEEE13__get_pointerB8ne180100Ev, symObjAddr: 0x239A8, symBinAddr: 0x100026100, symSize: 0x88 }
  - { offset: 0x17E8A, size: 0x8, addend: 0x0, symName: __ZNSt3__112basic_stringIcNS_11char_traitsIcEENS_9allocatorIcEEE18__get_long_pointerB8ne180100Ev, symObjAddr: 0x23A30, symBinAddr: 0x100026188, symSize: 0x1C0 }
  - { offset: 0x17EB0, size: 0x8, addend: 0x0, symName: __ZNSt3__112basic_stringIcNS_11char_traitsIcEENS_9allocatorIcEEE19__get_short_pointerB8ne180100Ev, symObjAddr: 0x23BF0, symBinAddr: 0x100026348, symSize: 0x17C }
  - { offset: 0x17ED6, size: 0x8, addend: 0x0, symName: __ZNSt3__114pointer_traitsIPcE10pointer_toB8ne180100ERc, symObjAddr: 0x23D6C, symBinAddr: 0x1000264C4, symSize: 0x14 }
  - { offset: 0x17EF9, size: 0x8, addend: 0x0, symName: __ZNSt3__119ostreambuf_iteratorIcNS_11char_traitsIcEEEC2B8ne180100ERNS_13basic_ostreamIcS2_EE, symObjAddr: 0x23D80, symBinAddr: 0x1000264D8, symSize: 0x2A8 }
  - { offset: 0x17F31, size: 0x8, addend: 0x0, symName: __ZNKSt3__19basic_iosIcNS_11char_traitsIcEEE5rdbufB8ne180100Ev, symObjAddr: 0x24028, symBinAddr: 0x100026780, symSize: 0x110 }
  - { offset: 0x17F59, size: 0x8, addend: 0x0, symName: __ZNKSt3__18ios_base5rdbufB8ne180100Ev, symObjAddr: 0x24138, symBinAddr: 0x100026890, symSize: 0x12C }
  - { offset: 0x17F7F, size: 0x8, addend: 0x0, symName: __ZNSt3__111char_traitsIcE11eq_int_typeB8ne180100Eii, symObjAddr: 0x24264, symBinAddr: 0x1000269BC, symSize: 0x2C }
  - { offset: 0x17FB2, size: 0x8, addend: 0x0, symName: __ZNSt3__111char_traitsIcE3eofB8ne180100Ev, symObjAddr: 0x24290, symBinAddr: 0x1000269E8, symSize: 0x8 }
  - { offset: 0x17FC6, size: 0x8, addend: 0x0, symName: __ZNKSt3__19basic_iosIcNS_11char_traitsIcEEE5widenB8ne180100Ec, symObjAddr: 0x24298, symBinAddr: 0x1000269F0, symSize: 0x430 }
  - { offset: 0x18041, size: 0x8, addend: 0x0, symName: __ZNKSt3__15ctypeIcE5widenB8ne180100Ec, symObjAddr: 0x2482C, symBinAddr: 0x100026F84, symSize: 0x170 }
  - { offset: 0x18076, size: 0x8, addend: 0x0, symName: __ZNSt3__18ios_base8setstateB8ne180100Ej, symObjAddr: 0x2499C, symBinAddr: 0x1000270F4, symSize: 0x1CC }
  - { offset: 0x180AD, size: 0x8, addend: 0x0, symName: __ZN7testing4Test16TearDownTestCaseEv, symObjAddr: 0x24B68, symBinAddr: 0x1000272C0, symSize: 0xC }
  - { offset: 0x180C1, size: 0x8, addend: 0x0, symName: __ZN7testing4Test17TearDownTestSuiteEv, symObjAddr: 0x24B74, symBinAddr: 0x1000272CC, symSize: 0x4 }
  - { offset: 0x180D5, size: 0x8, addend: 0x0, symName: __ZN7prqueueIiEC2Ev, symObjAddr: 0x24B78, symBinAddr: 0x1000272D0, symSize: 0x138 }
  - { offset: 0x180FF, size: 0x8, addend: 0x0, symName: __ZN7prqueueIiED2Ev, symObjAddr: 0x24CB0, symBinAddr: 0x100027408, symSize: 0xC0 }
  - { offset: 0x18129, size: 0x8, addend: 0x0, symName: __ZN7prqueueIiE13clearChildrenEPNS0_4NODEE, symObjAddr: 0x24D70, symBinAddr: 0x1000274C8, symSize: 0x300 }
  - { offset: 0x1815D, size: 0x8, addend: 0x0, symName: __ZN7testing8internal9EqMatcherIiEC1ERKi, symObjAddr: 0x25070, symBinAddr: 0x1000277C8, symSize: 0x6C }
  - { offset: 0x18196, size: 0x8, addend: 0x0, symName: __ZN7testing8internal9EqMatcherIiEC2ERKi, symObjAddr: 0x250DC, symBinAddr: 0x100027834, symSize: 0xD8 }
  - { offset: 0x181CF, size: 0x8, addend: 0x0, symName: __ZN7testing8internal14ComparisonBaseINS0_9EqMatcherIiEEiNSt3__18equal_toIvEEEC2ERKi, symObjAddr: 0x251B4, symBinAddr: 0x10002790C, symSize: 0x130 }
  - { offset: 0x18208, size: 0x8, addend: 0x0, symName: __ZN7testing8internal29PredicateFormatterFromMatcherINS0_9EqMatcherIiEEEC1ES3_, symObjAddr: 0x252E4, symBinAddr: 0x100027A3C, symSize: 0x74 }
  - { offset: 0x18241, size: 0x8, addend: 0x0, symName: __ZN7testing8internal29PredicateFormatterFromMatcherINS0_9EqMatcherIiEEEC2ES3_, symObjAddr: 0x25358, symBinAddr: 0x100027AB0, symSize: 0x7C }
  - { offset: 0x1827A, size: 0x8, addend: 0x0, symName: __ZNK7testing8internal11MatcherBaseIRKmE7MatchesES3_, symObjAddr: 0x2543C, symBinAddr: 0x100027B94, symSize: 0x368 }
  - { offset: 0x182C2, size: 0x8, addend: 0x0, symName: __ZNSt3__118basic_stringstreamIcNS_11char_traitsIcEENS_9allocatorIcEEEC1B8ne180100Ev, symObjAddr: 0x257A4, symBinAddr: 0x100027EFC, symSize: 0x3A4 }
  - { offset: 0x182EC, size: 0x8, addend: 0x0, symName: __ZNK7testing8internal11MatcherBaseIRKmE10DescribeToEPNSt3__113basic_ostreamIcNS5_11char_traitsIcEEEE, symObjAddr: 0x25B48, symBinAddr: 0x1000282A0, symSize: 0x5BC }
  - { offset: 0x1833D, size: 0x8, addend: 0x0, symName: __ZN7testing25StringMatchResultListenerC1Ev, symObjAddr: 0x26104, symBinAddr: 0x10002885C, symSize: 0x6C }
  - { offset: 0x18367, size: 0x8, addend: 0x0, symName: __ZNK7testing25StringMatchResultListener3strEv, symObjAddr: 0x26F28, symBinAddr: 0x100029680, symSize: 0x1B8 }
  - { offset: 0x1838D, size: 0x8, addend: 0x0, symName: __ZN7testing15AssertionResultlsINSt3__112basic_stringIcNS2_11char_traitsIcEENS2_9allocatorIcEEEEEERS0_RKT_, symObjAddr: 0x270E0, symBinAddr: 0x100029838, symSize: 0x350 }
  - { offset: 0x183CC, size: 0x8, addend: 0x0, symName: __ZNKRSt3__118basic_stringstreamIcNS_11char_traitsIcEENS_9allocatorIcEEE3strB8ne180100Ev, symObjAddr: 0x27430, symBinAddr: 0x100029B88, symSize: 0x1B8 }
  - { offset: 0x183F2, size: 0x8, addend: 0x0, symName: __ZN7testing25StringMatchResultListenerD1Ev, symObjAddr: 0x275E8, symBinAddr: 0x100029D40, symSize: 0x64 }
  - { offset: 0x18424, size: 0x8, addend: 0x0, symName: __ZNSt3__118basic_stringstreamIcNS_11char_traitsIcEENS_9allocatorIcEEED1Ev, symObjAddr: 0x2764C, symBinAddr: 0x100029DA4, symSize: 0x78 }
  - { offset: 0x18460, size: 0x8, addend: 0x0, symName: __ZN7testing7MatcherIRKmED1Ev, symObjAddr: 0x276C4, symBinAddr: 0x100029E1C, symSize: 0x6C }
  - { offset: 0x1848C, size: 0x8, addend: 0x0, symName: __ZN7testing8internal15MatcherCastImplIRKmNS0_9EqMatcherIiEEE4CastERKS5_, symObjAddr: 0x277A0, symBinAddr: 0x100029EF8, symSize: 0x70 }
  - { offset: 0x184B0, size: 0x8, addend: 0x0, symName: __ZN7testing8internal15MatcherCastImplIRKmNS0_9EqMatcherIiEEE8CastImplILb0EEENS_7MatcherIS3_EERKS5_NSt3__117integral_constantIbLb1EEENSD_IbXT_EEE, symObjAddr: 0x27810, symBinAddr: 0x100029F68, symSize: 0x9C }
  - { offset: 0x184F4, size: 0x8, addend: 0x0, symName: __ZN7testing7MatcherIRKmEC1IRKNS_8internal9EqMatcherIiEEvEEOT_, symObjAddr: 0x278AC, symBinAddr: 0x10002A004, symSize: 0x6C }
  - { offset: 0x18537, size: 0x8, addend: 0x0, symName: __ZN7testing7MatcherIRKmEC2IRKNS_8internal9EqMatcherIiEEvEEOT_, symObjAddr: 0x27918, symBinAddr: 0x10002A070, symSize: 0x138 }
  - { offset: 0x1857A, size: 0x8, addend: 0x0, symName: __ZN7testing8internal11MatcherBaseIRKmEC2IRKNS0_9EqMatcherIiEEvEEOT_, symObjAddr: 0x27A50, symBinAddr: 0x10002A1A8, symSize: 0x22C }
  - { offset: 0x185BD, size: 0x8, addend: 0x0, symName: __ZN7testing7MatcherIRKmED0Ev, symObjAddr: 0x27C7C, symBinAddr: 0x10002A3D4, symSize: 0x64 }
  - { offset: 0x185E9, size: 0x8, addend: 0x0, symName: __ZNK7testing8internal11MatcherBaseIRKmE18DescribeNegationToEPNSt3__113basic_ostreamIcNS5_11char_traitsIcEEEE, symObjAddr: 0x27CE0, symBinAddr: 0x10002A438, symSize: 0x5BC }
  - { offset: 0x1861F, size: 0x8, addend: 0x0, symName: __ZN7testing25MatcherDescriberInterfaceC2Ev, symObjAddr: 0x2829C, symBinAddr: 0x10002A9F4, symSize: 0xB4 }
  - { offset: 0x1864B, size: 0x8, addend: 0x0, symName: __ZN7testing8internal11MatcherBaseIRKmE4InitIRKNS0_9EqMatcherIiEEEEvOT_, symObjAddr: 0x28350, symBinAddr: 0x10002AAA8, symSize: 0x1FC }
  - { offset: 0x18689, size: 0x8, addend: 0x0, symName: __ZN7testing25MatcherDescriberInterfaceD2Ev, symObjAddr: 0x2854C, symBinAddr: 0x10002ACA4, symSize: 0x5C }
  - { offset: 0x186B3, size: 0x8, addend: 0x0, symName: __ZN7testing8internal11MatcherBaseIRKmED1Ev, symObjAddr: 0x285A8, symBinAddr: 0x10002AD00, symSize: 0x64 }
  - { offset: 0x186DD, size: 0x8, addend: 0x0, symName: __ZN7testing8internal11MatcherBaseIRKmED0Ev, symObjAddr: 0x2860C, symBinAddr: 0x10002AD64, symSize: 0x64 }
  - { offset: 0x18707, size: 0x8, addend: 0x0, symName: __ZN7testing25MatcherDescriberInterfaceD1Ev, symObjAddr: 0x28670, symBinAddr: 0x10002ADC8, symSize: 0x54 }
  - { offset: 0x18731, size: 0x8, addend: 0x0, symName: __ZN7testing25MatcherDescriberInterfaceD0Ev, symObjAddr: 0x286C4, symBinAddr: 0x10002AE1C, symSize: 0x50 }
  - { offset: 0x1875B, size: 0x8, addend: 0x0, symName: __ZNK7testing25MatcherDescriberInterface18DescribeNegationToEPNSt3__113basic_ostreamIcNS1_11char_traitsIcEEEE, symObjAddr: 0x28714, symBinAddr: 0x10002AE6C, symSize: 0x1FC }
  - { offset: 0x1878F, size: 0x8, addend: 0x0, symName: __ZN7testing8internal11MatcherBaseIRKmE11ValuePolicyINS0_9EqMatcherIiEELb1EE4InitERS4_S7_, symObjAddr: 0x28974, symBinAddr: 0x10002B0CC, symSize: 0x84 }
  - { offset: 0x187C2, size: 0x8, addend: 0x0, symName: __ZN7testing8internal11MatcherBaseIRKmE19MatchAndExplainImplINS4_11ValuePolicyINS0_9EqMatcherIiEELb1EEEEEDTcldtclsrT_3Getfp_E15MatchAndExplainfp0_clptfp1_6streamEEERKS4_S3_PNS_19MatchResultListenerE, symObjAddr: 0x289F8, symBinAddr: 0x10002B150, symSize: 0x1E8 }
  - { offset: 0x1880D, size: 0x8, addend: 0x0, symName: __ZN7testing8internal11MatcherBaseIRKmE12DescribeImplINS4_11ValuePolicyINS0_9EqMatcherIiEELb1EEEEEvRKS4_PNSt3__113basic_ostreamIcNSC_11char_traitsIcEEEEb, symObjAddr: 0x28BE0, symBinAddr: 0x10002B338, symSize: 0x1B0 }
  - { offset: 0x18858, size: 0x8, addend: 0x0, symName: __ZN7testing8internal11MatcherBaseIRKmE16GetDescriberImplINS4_11ValuePolicyINS0_9EqMatcherIiEELb1EEEEEPKNS_25MatcherDescriberInterfaceERKS4_, symObjAddr: 0x28D90, symBinAddr: 0x10002B4E8, symSize: 0x324 }
  - { offset: 0x18886, size: 0x8, addend: 0x0, symName: __ZN7testing8internal11MatcherBaseIRKmE11ValuePolicyINS0_9EqMatcherIiEELb1EE3GetERKS4_, symObjAddr: 0x290B4, symBinAddr: 0x10002B80C, symSize: 0x64 }
  - { offset: 0x188B9, size: 0x8, addend: 0x0, symName: __ZNK7testing8internal14ComparisonBaseINS0_9EqMatcherIiEEiNSt3__18equal_toIvEEE15MatchAndExplainImEEbRKT_PNS4_13basic_ostreamIcNS4_11char_traitsIcEEEE, symObjAddr: 0x29118, symBinAddr: 0x10002B870, symSize: 0x2B0 }
  - { offset: 0x18905, size: 0x8, addend: 0x0, symName: __ZN7testing19MatchResultListener6streamEv, symObjAddr: 0x293C8, symBinAddr: 0x10002BB20, symSize: 0x124 }
  - { offset: 0x18935, size: 0x8, addend: 0x0, symName: __ZNKSt3__18equal_toIvEclB8ne180100IRKmRKiEEDTeqclsr3stdE7forwardIT_Efp_Eclsr3stdE7forwardIT0_Efp0_EEOS7_OS8_, symObjAddr: 0x294EC, symBinAddr: 0x10002BC44, symSize: 0x174 }
  - { offset: 0x1898B, size: 0x8, addend: 0x0, symName: __ZN7testing8internal14ComparisonBaseINS0_9EqMatcherIiEEiNSt3__18equal_toIvEEE6UnwrapIiEERKT_SB_, symObjAddr: 0x29660, symBinAddr: 0x10002BDB8, symSize: 0x58 }
  - { offset: 0x189B8, size: 0x8, addend: 0x0, symName: __ZNK7testing8internal14ComparisonBaseINS0_9EqMatcherIiEEiNSt3__18equal_toIvEEE18DescribeNegationToEPNS4_13basic_ostreamIcNS4_11char_traitsIcEEEE, symObjAddr: 0x296B8, symBinAddr: 0x10002BE10, symSize: 0x160 }
  - { offset: 0x189ED, size: 0x8, addend: 0x0, symName: __ZNK7testing8internal14ComparisonBaseINS0_9EqMatcherIiEEiNSt3__18equal_toIvEEE10DescribeToEPNS4_13basic_ostreamIcNS4_11char_traitsIcEEEE, symObjAddr: 0x29818, symBinAddr: 0x10002BF70, symSize: 0x168 }
  - { offset: 0x18A22, size: 0x8, addend: 0x0, symName: __ZN7testing8internal9EqMatcherIiE11NegatedDescEv, symObjAddr: 0x29980, symBinAddr: 0x10002C0D8, symSize: 0x14 }
  - { offset: 0x18A36, size: 0x8, addend: 0x0, symName: __ZN7testing8internal16UniversalPrinterIiE5PrintERKiPNSt3__113basic_ostreamIcNS5_11char_traitsIcEEEE, symObjAddr: 0x29A00, symBinAddr: 0x10002C158, symSize: 0x6C }
  - { offset: 0x18A69, size: 0x8, addend: 0x0, symName: __ZN7testing8internal52internal_stream_operator_without_lexical_name_lookup13StreamPrinter10PrintValueIivEEDTcvvlsdefp0_fp_ERKT_PNSt3__113basic_ostreamIcNS8_11char_traitsIcEEEE, symObjAddr: 0x29B44, symBinAddr: 0x10002C29C, symSize: 0x16C }
  - { offset: 0x18AA4, size: 0x8, addend: 0x0, symName: __ZN7testing8internal9EqMatcherIiE4DescEv, symObjAddr: 0x29CB0, symBinAddr: 0x10002C408, symSize: 0x14 }
  - { offset: 0x18AEF, size: 0x8, addend: 0x0, symName: __ZNSt3__112__tuple_leafILm0EPKN7testing8internal11MatcherBaseIRKmEELb0EE3getB8ne180100Ev, symObjAddr: 0x29FB4, symBinAddr: 0x10002C70C, symSize: 0x8C }
  - { offset: 0x18B90, size: 0x8, addend: 0x0, symName: __ZNSt3__15tupleIJPKN7testing8internal11MatcherBaseIRKmEEPKNS2_9EqMatcherIiEEEEC1B8ne180100IJS8_SC_ETnNS_9enable_ifIXsr4_AndINS_17integral_constantIbXeqsZT_sZT_EEENSD_17_EnableUTypesCtorIJDpT_EEEEE5valueEiE4typeELi0EEEDpOSJ_, symObjAddr: 0x2A040, symBinAddr: 0x10002C798, symSize: 0x74 }
  - { offset: 0x18BEE, size: 0x8, addend: 0x0, symName: __ZNSt3__15tupleIJPKN7testing8internal11MatcherBaseIRKmEEPKNS2_9EqMatcherIiEEEEC2B8ne180100IJS8_SC_ETnNS_9enable_ifIXsr4_AndINS_17integral_constantIbXeqsZT_sZT_EEENSD_17_EnableUTypesCtorIJDpT_EEEEE5valueEiE4typeELi0EEEDpOSJ_, symObjAddr: 0x2A0B4, symBinAddr: 0x10002C80C, symSize: 0xE4 }
  - { offset: 0x18C4C, size: 0x8, addend: 0x0, symName: __ZNSt3__112__tuple_implINS_15__tuple_indicesIJLm0ELm1EEEEJPKN7testing8internal11MatcherBaseIRKmEEPKNS4_9EqMatcherIiEEEEC1B8ne180100IJLm0ELm1EEJSA_SE_ETpTnmJEJEJSA_SE_EEENS1_IJXspT_EEEENS_13__tuple_typesIJDpT0_EEENS1_IJXspT1_EEEENSI_IJDpT2_EEEDpOT3_, symObjAddr: 0x2A198, symBinAddr: 0x10002C8F0, symSize: 0x74 }
  - { offset: 0x18CFC, size: 0x8, addend: 0x0, symName: __ZNSt3__112__tuple_implINS_15__tuple_indicesIJLm0ELm1EEEEJPKN7testing8internal11MatcherBaseIRKmEEPKNS4_9EqMatcherIiEEEEC2B8ne180100IJLm0ELm1EEJSA_SE_ETpTnmJEJEJSA_SE_EEENS1_IJXspT_EEEENS_13__tuple_typesIJDpT0_EEENS1_IJXspT1_EEEENSI_IJDpT2_EEEDpOT3_, symObjAddr: 0x2A20C, symBinAddr: 0x10002C964, symSize: 0x168 }
  - { offset: 0x18DAC, size: 0x8, addend: 0x0, symName: __ZNSt3__112__tuple_leafILm0EPKN7testing8internal11MatcherBaseIRKmEELb0EEC2B8ne180100IS8_vEEOT_, symObjAddr: 0x2A374, symBinAddr: 0x10002CACC, symSize: 0x124 }
  - { offset: 0x18DEF, size: 0x8, addend: 0x0, symName: __ZNSt3__112__tuple_leafILm1EPKN7testing8internal9EqMatcherIiEELb0EEC2B8ne180100IS6_vEEOT_, symObjAddr: 0x2A498, symBinAddr: 0x10002CBF0, symSize: 0x124 }
  - { offset: 0x18E32, size: 0x8, addend: 0x0, symName: __ZN7testing8internal11MatcherBaseIRKmED2Ev, symObjAddr: 0x2A5BC, symBinAddr: 0x10002CD14, symSize: 0x158 }
  - { offset: 0x18E5C, size: 0x8, addend: 0x0, symName: __ZN7testing8internal11MatcherBaseIRKmE7DestroyEv, symObjAddr: 0x2A714, symBinAddr: 0x10002CE6C, symSize: 0x4A8 }
  - { offset: 0x18E82, size: 0x8, addend: 0x0, symName: __ZNK7testing8internal11MatcherBaseIRKmE8IsSharedEv, symObjAddr: 0x2ABBC, symBinAddr: 0x10002D314, symSize: 0x29C }
  - { offset: 0x18EA8, size: 0x8, addend: 0x0, symName: __ZN7testing8internal17SharedPayloadBase5UnrefEv, symObjAddr: 0x2AE58, symBinAddr: 0x10002D5B0, symSize: 0xC4 }
  - { offset: 0x18ECE, size: 0x8, addend: 0x0, symName: __ZNSt3__113__atomic_baseIiLb1EE9fetch_subB8ne180100EiNS_12memory_orderE, symObjAddr: 0x2AF1C, symBinAddr: 0x10002D674, symSize: 0xCC }
  - { offset: 0x18F26, size: 0x8, addend: 0x0, symName: __ZN7testing8internal24DummyMatchResultListenerC1Ev, symObjAddr: 0x2B2CC, symBinAddr: 0x10002DA24, symSize: 0x64 }
  - { offset: 0x18F50, size: 0x8, addend: 0x0, symName: __ZNK7testing8internal11MatcherBaseIRKmE15MatchAndExplainES3_PNS_19MatchResultListenerE, symObjAddr: 0x2B330, symBinAddr: 0x10002DA88, symSize: 0x5F4 }
  - { offset: 0x18F95, size: 0x8, addend: 0x0, symName: __ZN7testing8internal24DummyMatchResultListenerD1Ev, symObjAddr: 0x2B924, symBinAddr: 0x10002E07C, symSize: 0x64 }
  - { offset: 0x18FC1, size: 0x8, addend: 0x0, symName: __ZN7testing8internal24DummyMatchResultListenerC2Ev, symObjAddr: 0x2B988, symBinAddr: 0x10002E0E0, symSize: 0xFC }
  - { offset: 0x18FEB, size: 0x8, addend: 0x0, symName: __ZN7testing19MatchResultListenerC2EPNSt3__113basic_ostreamIcNS1_11char_traitsIcEEEE, symObjAddr: 0x2BA84, symBinAddr: 0x10002E1DC, symSize: 0xF4 }
  - { offset: 0x19023, size: 0x8, addend: 0x0, symName: __ZN7testing8internal24DummyMatchResultListenerD0Ev, symObjAddr: 0x2BB78, symBinAddr: 0x10002E2D0, symSize: 0x64 }
  - { offset: 0x1904F, size: 0x8, addend: 0x0, symName: __ZN7testing8internal24DummyMatchResultListenerD2Ev, symObjAddr: 0x2BBDC, symBinAddr: 0x10002E334, symSize: 0x64 }
  - { offset: 0x1907B, size: 0x8, addend: 0x0, symName: __ZN7testing19MatchResultListenerD2Ev, symObjAddr: 0x2BC40, symBinAddr: 0x10002E398, symSize: 0x5C }
  - { offset: 0x190A6, size: 0x8, addend: 0x0, symName: __ZNSt3__19basic_iosIcNS_11char_traitsIcEEEC2B8ne180100Ev, symObjAddr: 0x2BC9C, symBinAddr: 0x10002E3F4, symSize: 0xF8 }
  - { offset: 0x190D0, size: 0x8, addend: 0x0, symName: __ZNSt3__114basic_iostreamIcNS_11char_traitsIcEEEC2B8ne180100EPNS_15basic_streambufIcS2_EE, symObjAddr: 0x2BD94, symBinAddr: 0x10002E4EC, symSize: 0x2F4 }
  - { offset: 0x19116, size: 0x8, addend: 0x0, symName: __ZNSt3__115basic_stringbufIcNS_11char_traitsIcEENS_9allocatorIcEEEC1B8ne180100Ej, symObjAddr: 0x2C088, symBinAddr: 0x10002E7E0, symSize: 0x6C }
  - { offset: 0x1914F, size: 0x8, addend: 0x0, symName: __ZNSt3__18ios_baseC2B8ne180100Ev, symObjAddr: 0x2C0F4, symBinAddr: 0x10002E84C, symSize: 0xB4 }
  - { offset: 0x19179, size: 0x8, addend: 0x0, symName: __ZNSt3__113basic_istreamIcNS_11char_traitsIcEEEC2B8ne180100EPNS_15basic_streambufIcS2_EE, symObjAddr: 0x2C1A8, symBinAddr: 0x10002E900, symSize: 0x364 }
  - { offset: 0x191BE, size: 0x8, addend: 0x0, symName: __ZNSt3__113basic_ostreamIcNS_11char_traitsIcEEEC2B8ne180100Ev, symObjAddr: 0x2C50C, symBinAddr: 0x10002EC64, symSize: 0x19C }
  - { offset: 0x191F5, size: 0x8, addend: 0x0, symName: __ZNSt3__19basic_iosIcNS_11char_traitsIcEEE4initB8ne180100EPNS_15basic_streambufIcS2_EE, symObjAddr: 0x2C6A8, symBinAddr: 0x10002EE00, symSize: 0x29C }
  - { offset: 0x1922C, size: 0x8, addend: 0x0, symName: __ZNSt3__115basic_stringbufIcNS_11char_traitsIcEENS_9allocatorIcEEEC2B8ne180100Ej, symObjAddr: 0x2C944, symBinAddr: 0x10002F09C, symSize: 0x198 }
  - { offset: 0x19265, size: 0x8, addend: 0x0, symName: __ZN7testing25StringMatchResultListenerC2Ev, symObjAddr: 0x2CADC, symBinAddr: 0x10002F234, symSize: 0x244 }
  - { offset: 0x1928F, size: 0x8, addend: 0x0, symName: __ZN7testing25StringMatchResultListenerD0Ev, symObjAddr: 0x2CD20, symBinAddr: 0x10002F478, symSize: 0x64 }
  - { offset: 0x192BC, size: 0x8, addend: 0x0, symName: __ZNK7testing19MatchResultListener12IsInterestedEv, symObjAddr: 0x2CD84, symBinAddr: 0x10002F4DC, symSize: 0x134 }
  - { offset: 0x192E2, size: 0x8, addend: 0x0, symName: __ZN7testing8internal16UniversalPrinterImE5PrintERKmPNSt3__113basic_ostreamIcNS5_11char_traitsIcEEEE, symObjAddr: 0x2D144, symBinAddr: 0x10002F89C, symSize: 0x6C }
  - { offset: 0x19315, size: 0x8, addend: 0x0, symName: __ZN7testing8internal52internal_stream_operator_without_lexical_name_lookup13StreamPrinter10PrintValueImvEEDTcvvlsdefp0_fp_ERKT_PNSt3__113basic_ostreamIcNS8_11char_traitsIcEEEE, symObjAddr: 0x2D288, symBinAddr: 0x10002F9E0, symSize: 0x148 }
  - { offset: 0x1938A, size: 0x8, addend: 0x0, symName: __ZNKSt9type_info4nameB8ne180100Ev, symObjAddr: 0x2D878, symBinAddr: 0x10002FFD0, symSize: 0x138 }
  - { offset: 0x193D0, size: 0x8, addend: 0x0, symName: __ZNKSt3__112basic_stringIcNS_11char_traitsIcEENS_9allocatorIcEEE4findB8ne180100EPKcm, symObjAddr: 0x2DBF8, symBinAddr: 0x100030350, symSize: 0xB0 }
  - { offset: 0x19414, size: 0x8, addend: 0x0, symName: __ZNSt3__111char_traitsIcE4findB8ne180100EPKcmRS2_, symObjAddr: 0x2E4C4, symBinAddr: 0x100030C1C, symSize: 0xE0 }
  - { offset: 0x19453, size: 0x8, addend: 0x0, symName: __ZNSt3__111char_traitsIcE7compareB8ne180100EPKcS3_m, symObjAddr: 0x2E5A4, symBinAddr: 0x100030CFC, symSize: 0x3C }
  - { offset: 0x19492, size: 0x8, addend: 0x0, symName: __ZNKSt3__112basic_stringIcNS_11char_traitsIcEENS_9allocatorIcEEE6lengthB8ne180100Ev, symObjAddr: 0x2E62C, symBinAddr: 0x100030D84, symSize: 0x5C }
  - { offset: 0x194B8, size: 0x8, addend: 0x0, symName: __ZNKSt3__112basic_stringIcNS_11char_traitsIcEENS_9allocatorIcEEE13find_first_ofB8ne180100EPKcm, symObjAddr: 0x2E688, symBinAddr: 0x100030DE0, symSize: 0xB0 }
  - { offset: 0x194FC, size: 0x8, addend: 0x0, symName: __ZNSt3__111char_traitsIcE2eqEcc, symObjAddr: 0x2EE30, symBinAddr: 0x100031588, symSize: 0x24 }
  - { offset: 0x1952D, size: 0x8, addend: 0x0, symName: __ZNKSt3__112basic_stringIcNS_11char_traitsIcEENS_9allocatorIcEEE5emptyB8ne180100Ev, symObjAddr: 0x2EE54, symBinAddr: 0x1000315AC, symSize: 0x64 }
  - { offset: 0x19553, size: 0x8, addend: 0x0, symName: __ZN7testing15AssertionResult13AppendMessageERKNS_7MessageE, symObjAddr: 0x2EEB8, symBinAddr: 0x100031610, symSize: 0x484 }
  - { offset: 0x19589, size: 0x8, addend: 0x0, symName: __ZN7testing7MessagelsINSt3__112basic_stringIcNS2_11char_traitsIcEENS2_9allocatorIcEEEEEERS0_RKT_, symObjAddr: 0x2F33C, symBinAddr: 0x100031A94, symSize: 0x180 }
  - { offset: 0x195CD, size: 0x8, addend: 0x0, symName: __ZNSt3__110unique_ptrINS_12basic_stringIcNS_11char_traitsIcEENS_9allocatorIcEEEENS_14default_deleteIS6_EEEaSB8ne180100EOS9_, symObjAddr: 0x2F560, symBinAddr: 0x100031CB8, symSize: 0x138 }
  - { offset: 0x19601, size: 0x8, addend: 0x0, symName: __ZNSt3__110unique_ptrINS_12basic_stringIcNS_11char_traitsIcEENS_9allocatorIcEEEENS_14default_deleteIS6_EEEC1B8ne180100ILb1EvEEPS6_, symObjAddr: 0x2F698, symBinAddr: 0x100031DF0, symSize: 0x6C }
  - { offset: 0x19644, size: 0x8, addend: 0x0, symName: __ZNSt3__110unique_ptrINS_12basic_stringIcNS_11char_traitsIcEENS_9allocatorIcEEEENS_14default_deleteIS6_EEEC2B8ne180100ILb1EvEEPS6_, symObjAddr: 0x2F704, symBinAddr: 0x100031E5C, symSize: 0x250 }
  - { offset: 0x19692, size: 0x8, addend: 0x0, symName: __ZNSt3__117__compressed_pairIPNS_12basic_stringIcNS_11char_traitsIcEENS_9allocatorIcEEEENS_14default_deleteIS6_EEEC1B8ne180100IRS7_NS_16__value_init_tagEEEOT_OT0_, symObjAddr: 0x2F954, symBinAddr: 0x1000320AC, symSize: 0x74 }
  - { offset: 0x196EA, size: 0x8, addend: 0x0, symName: __ZNSt3__117__compressed_pairIPNS_12basic_stringIcNS_11char_traitsIcEENS_9allocatorIcEEEENS_14default_deleteIS6_EEEC2B8ne180100IRS7_NS_16__value_init_tagEEEOT_OT0_, symObjAddr: 0x2F9C8, symBinAddr: 0x100032120, symSize: 0x104 }
  - { offset: 0x19742, size: 0x8, addend: 0x0, symName: __ZNSt3__122__compressed_pair_elemIPNS_12basic_stringIcNS_11char_traitsIcEENS_9allocatorIcEEEELi0ELb0EEC2B8ne180100IRS7_vEEOT_, symObjAddr: 0x2FACC, symBinAddr: 0x100032224, symSize: 0x124 }
  - { offset: 0x19784, size: 0x8, addend: 0x0, symName: __ZNSt3__122__compressed_pair_elemINS_14default_deleteINS_12basic_stringIcNS_11char_traitsIcEENS_9allocatorIcEEEEEELi1ELb1EEC2B8ne180100ENS_16__value_init_tagE, symObjAddr: 0x2FBF0, symBinAddr: 0x100032348, symSize: 0x48 }
  - { offset: 0x197B9, size: 0x8, addend: 0x0, symName: __ZNSt3__110unique_ptrINS_12basic_stringIcNS_11char_traitsIcEENS_9allocatorIcEEEENS_14default_deleteIS6_EEE7releaseB8ne180100Ev, symObjAddr: 0x2FC38, symBinAddr: 0x100032390, symSize: 0x1BC }
  - { offset: 0x197EE, size: 0x8, addend: 0x0, symName: __ZNSt3__110unique_ptrINS_12basic_stringIcNS_11char_traitsIcEENS_9allocatorIcEEEENS_14default_deleteIS6_EEE11get_deleterB8ne180100Ev, symObjAddr: 0x2FDF4, symBinAddr: 0x10003254C, symSize: 0xB4 }
  - { offset: 0x19814, size: 0x8, addend: 0x0, symName: __ZNKSt3__110unique_ptrINS_18basic_stringstreamIcNS_11char_traitsIcEENS_9allocatorIcEEEENS_14default_deleteIS6_EEEdeB8ne180100Ev, symObjAddr: 0x2FEA8, symBinAddr: 0x100032600, symSize: 0x144 }
  - { offset: 0x1983A, size: 0x8, addend: 0x0, symName: __ZNKSt3__117__compressed_pairIPNS_18basic_stringstreamIcNS_11char_traitsIcEENS_9allocatorIcEEEENS_14default_deleteIS6_EEE5firstB8ne180100Ev, symObjAddr: 0x2FFEC, symBinAddr: 0x100032744, symSize: 0xEC }
  - { offset: 0x19860, size: 0x8, addend: 0x0, symName: __ZNKSt3__122__compressed_pair_elemIPNS_18basic_stringstreamIcNS_11char_traitsIcEENS_9allocatorIcEEEELi0ELb0EE5__getB8ne180100Ev, symObjAddr: 0x300D8, symBinAddr: 0x100032830, symSize: 0x8C }
  - { offset: 0x19886, size: 0x8, addend: 0x0, symName: __ZNKRSt3__115basic_stringbufIcNS_11char_traitsIcEENS_9allocatorIcEEE3strB8ne180100Ev, symObjAddr: 0x30164, symBinAddr: 0x1000328BC, symSize: 0x344 }
  - { offset: 0x198AD, size: 0x8, addend: 0x0, symName: __ZNKSt3__115basic_stringbufIcNS_11char_traitsIcEENS_9allocatorIcEEE3strB8ne180100IS4_Qsr14__is_allocatorITL0__EE5valueEENS_12basic_stringIcS2_T_EERKS9_, symObjAddr: 0x304A8, symBinAddr: 0x100032C00, symSize: 0x2F8 }
  - { offset: 0x198ED, size: 0x8, addend: 0x0, symName: __ZNKSt3__112basic_stringIcNS_11char_traitsIcEENS_9allocatorIcEEE13get_allocatorB8ne180100Ev, symObjAddr: 0x307A0, symBinAddr: 0x100032EF8, symSize: 0x5C }
  - { offset: 0x19913, size: 0x8, addend: 0x0, symName: __ZNKSt3__115basic_stringbufIcNS_11char_traitsIcEENS_9allocatorIcEEE4viewB8ne180100Ev, symObjAddr: 0x307FC, symBinAddr: 0x100032F54, symSize: 0x8EC }
  - { offset: 0x1993C, size: 0x8, addend: 0x0, symName: __ZNSt3__112basic_stringIcNS_11char_traitsIcEENS_9allocatorIcEEEC1INS_17basic_string_viewIcS2_EETnNS_9enable_ifIXaasr33__can_be_converted_to_string_viewIcS2_T_EE5valuentsr17__is_same_uncvrefISA_S5_EE5valueEiE4typeELi0EEERKSA_RKS4_, symObjAddr: 0x310E8, symBinAddr: 0x100033840, symSize: 0x74 }
  - { offset: 0x19993, size: 0x8, addend: 0x0, symName: __ZNKSt3__115basic_streambufIcNS_11char_traitsIcEEE4pptrB8ne180100Ev, symObjAddr: 0x3115C, symBinAddr: 0x1000338B4, symSize: 0x124 }
  - { offset: 0x199B9, size: 0x8, addend: 0x0, symName: __ZNKSt3__115basic_streambufIcNS_11char_traitsIcEEE5pbaseB8ne180100Ev, symObjAddr: 0x31280, symBinAddr: 0x1000339D8, symSize: 0x124 }
  - { offset: 0x199E4, size: 0x8, addend: 0x0, symName: __ZNSt3__117basic_string_viewIcNS_11char_traitsIcEEEC1B8ne180100ITkNS_19contiguous_iteratorEPcTkNS_18sized_sentinel_forITL0__EES5_Qaa9is_same_vINS_11conditionalIXsr21__is_primary_templateINS_15iterator_traitsIu14__remove_cvrefIS7_EEEEE5valueENS_26indirectly_readable_traitsISA_EESB_E4type10value_typeET_Ent16is_convertible_vITL0_0_mEEESH_T0_, symObjAddr: 0x313A4, symBinAddr: 0x100033AFC, symSize: 0x74 }
  - { offset: 0x19A3E, size: 0x8, addend: 0x0, symName: __ZNKSt3__115basic_streambufIcNS_11char_traitsIcEEE5ebackB8ne180100Ev, symObjAddr: 0x31418, symBinAddr: 0x100033B70, symSize: 0x124 }
  - { offset: 0x19A64, size: 0x8, addend: 0x0, symName: __ZNKSt3__115basic_streambufIcNS_11char_traitsIcEEE5egptrB8ne180100Ev, symObjAddr: 0x3153C, symBinAddr: 0x100033C94, symSize: 0x124 }
  - { offset: 0x19A8A, size: 0x8, addend: 0x0, symName: __ZNSt3__117basic_string_viewIcNS_11char_traitsIcEEEC1B8ne180100Ev, symObjAddr: 0x31660, symBinAddr: 0x100033DB8, symSize: 0x64 }
  - { offset: 0x19AB4, size: 0x8, addend: 0x0, symName: __ZNSt3__117basic_string_viewIcNS_11char_traitsIcEEEC2B8ne180100ITkNS_19contiguous_iteratorEPcTkNS_18sized_sentinel_forITL0__EES5_Qaa9is_same_vINS_11conditionalIXsr21__is_primary_templateINS_15iterator_traitsIu14__remove_cvrefIS7_EEEEE5valueENS_26indirectly_readable_traitsISA_EESB_E4type10value_typeET_Ent16is_convertible_vITL0_0_mEEESH_T0_, symObjAddr: 0x316C4, symBinAddr: 0x100033E1C, symSize: 0x10C }
  - { offset: 0x19B0E, size: 0x8, addend: 0x0, symName: __ZNSt3__117basic_string_viewIcNS_11char_traitsIcEEEC2B8ne180100Ev, symObjAddr: 0x317F4, symBinAddr: 0x100033F4C, symSize: 0xD8 }
  - { offset: 0x19B38, size: 0x8, addend: 0x0, symName: __ZNSt3__112basic_stringIcNS_11char_traitsIcEENS_9allocatorIcEEEC2INS_17basic_string_viewIcS2_EETnNS_9enable_ifIXaasr33__can_be_converted_to_string_viewIcS2_T_EE5valuentsr17__is_same_uncvrefISA_S5_EE5valueEiE4typeELi0EEERKSA_RKS4_, symObjAddr: 0x318CC, symBinAddr: 0x100034024, symSize: 0x2A8 }
  - { offset: 0x19BB3, size: 0x8, addend: 0x0, symName: __ZNSt3__117__compressed_pairINS_12basic_stringIcNS_11char_traitsIcEENS_9allocatorIcEEE5__repES5_EC1B8ne180100INS_18__default_init_tagERKS5_EEOT_OT0_, symObjAddr: 0x31B74, symBinAddr: 0x1000342CC, symSize: 0x74 }
  - { offset: 0x19C0B, size: 0x8, addend: 0x0, symName: __ZNKSt3__117basic_string_viewIcNS_11char_traitsIcEEE4dataB8ne180100Ev, symObjAddr: 0x31BE8, symBinAddr: 0x100034340, symSize: 0x9C }
  - { offset: 0x19C31, size: 0x8, addend: 0x0, symName: __ZNKSt3__117basic_string_viewIcNS_11char_traitsIcEEE4sizeB8ne180100Ev, symObjAddr: 0x31C84, symBinAddr: 0x1000343DC, symSize: 0xA0 }
  - { offset: 0x19C57, size: 0x8, addend: 0x0, symName: __ZNSt3__117__compressed_pairINS_12basic_stringIcNS_11char_traitsIcEENS_9allocatorIcEEE5__repES5_EC2B8ne180100INS_18__default_init_tagERKS5_EEOT_OT0_, symObjAddr: 0x31D24, symBinAddr: 0x10003447C, symSize: 0xF0 }
  - { offset: 0x19CAF, size: 0x8, addend: 0x0, symName: __ZNSt3__122__compressed_pair_elemINS_9allocatorIcEELi1ELb1EEC2B8ne180100IRKS2_vEEOT_, symObjAddr: 0x31E14, symBinAddr: 0x10003456C, symSize: 0x4C }
  - { offset: 0x19CF1, size: 0x8, addend: 0x0, symName: __ZNKSt3__112basic_stringIcNS_11char_traitsIcEENS_9allocatorIcEEE7__allocB8ne180100Ev, symObjAddr: 0x31E60, symBinAddr: 0x1000345B8, symSize: 0xB4 }
  - { offset: 0x19D17, size: 0x8, addend: 0x0, symName: __ZNKSt3__117__compressed_pairINS_12basic_stringIcNS_11char_traitsIcEENS_9allocatorIcEEE5__repES5_E6secondB8ne180100Ev, symObjAddr: 0x31F14, symBinAddr: 0x10003466C, symSize: 0xC4 }
  - { offset: 0x19D3D, size: 0x8, addend: 0x0, symName: __ZNKSt3__122__compressed_pair_elemINS_9allocatorIcEELi1ELb1EE5__getB8ne180100Ev, symObjAddr: 0x31FD8, symBinAddr: 0x100034730, symSize: 0x64 }
  - { offset: 0x19D63, size: 0x8, addend: 0x0, symName: __ZN7testing25StringMatchResultListenerD2Ev, symObjAddr: 0x3203C, symBinAddr: 0x100034794, symSize: 0xC4 }
  - { offset: 0x19D90, size: 0x8, addend: 0x0, symName: __ZNSt3__118basic_stringstreamIcNS_11char_traitsIcEENS_9allocatorIcEEED2Ev, symObjAddr: 0x32100, symBinAddr: 0x100034858, symSize: 0x224 }
  - { offset: 0x19DCA, size: 0x8, addend: 0x0, symName: __ZThn16_NSt3__118basic_stringstreamIcNS_11char_traitsIcEENS_9allocatorIcEEED1Ev, symObjAddr: 0x32324, symBinAddr: 0x100034A7C, symSize: 0x1C }
  - { offset: 0x19DE1, size: 0x8, addend: 0x0, symName: __ZTv0_n24_NSt3__118basic_stringstreamIcNS_11char_traitsIcEENS_9allocatorIcEEED1Ev, symObjAddr: 0x32340, symBinAddr: 0x100034A98, symSize: 0xA0 }
  - { offset: 0x19DFD, size: 0x8, addend: 0x0, symName: __ZNSt3__115basic_stringbufIcNS_11char_traitsIcEENS_9allocatorIcEEED1Ev, symObjAddr: 0x323E0, symBinAddr: 0x100034B38, symSize: 0x64 }
  - { offset: 0x19E2A, size: 0x8, addend: 0x0, symName: __ZNSt3__115basic_stringbufIcNS_11char_traitsIcEENS_9allocatorIcEEED2Ev, symObjAddr: 0x32444, symBinAddr: 0x100034B9C, symSize: 0xC4 }
  - { offset: 0x19E57, size: 0x8, addend: 0x0, symName: __ZN7testing7MatcherIRKmED2Ev, symObjAddr: 0x32508, symBinAddr: 0x100034C60, symSize: 0x64 }
  - { offset: 0x19E83, size: 0x8, addend: 0x0, symName: __ZN7testing8internal9EqMatcherIDnEC1ERKDn, symObjAddr: 0x3256C, symBinAddr: 0x100034CC4, symSize: 0x6C }
  - { offset: 0x19EBC, size: 0x8, addend: 0x0, symName: __ZN7testing8internal9EqMatcherIDnEC2ERKDn, symObjAddr: 0x325D8, symBinAddr: 0x100034D30, symSize: 0xD8 }
  - { offset: 0x19EF5, size: 0x8, addend: 0x0, symName: __ZN7testing8internal14ComparisonBaseINS0_9EqMatcherIDnEEDnNSt3__18equal_toIvEEEC2ERKDn, symObjAddr: 0x326B0, symBinAddr: 0x100034E08, symSize: 0xAC }
  - { offset: 0x19F2E, size: 0x8, addend: 0x0, symName: __ZN7testing8internal29PredicateFormatterFromMatcherINS0_9EqMatcherIDnEEEC1ES3_, symObjAddr: 0x3275C, symBinAddr: 0x100034EB4, symSize: 0x6C }
  - { offset: 0x19F67, size: 0x8, addend: 0x0, symName: __ZN7testing8internal29PredicateFormatterFromMatcherINS0_9EqMatcherIDnEEEC2ES3_, symObjAddr: 0x327C8, symBinAddr: 0x100034F20, symSize: 0x78 }
  - { offset: 0x19FA0, size: 0x8, addend: 0x0, symName: __ZNK7testing8internal11MatcherBaseIRKPN7prqueueIiE4NODEEE7MatchesES7_, symObjAddr: 0x328A8, symBinAddr: 0x100035000, symSize: 0x368 }
  - { offset: 0x19FE8, size: 0x8, addend: 0x0, symName: __ZNK7testing8internal11MatcherBaseIRKPN7prqueueIiE4NODEEE10DescribeToEPNSt3__113basic_ostreamIcNS9_11char_traitsIcEEEE, symObjAddr: 0x32C10, symBinAddr: 0x100035368, symSize: 0x5C4 }
  - { offset: 0x1A02D, size: 0x8, addend: 0x0, symName: __ZN7testing7MatcherIRKPN7prqueueIiE4NODEEED1Ev, symObjAddr: 0x33E74, symBinAddr: 0x1000365CC, symSize: 0x6C }
  - { offset: 0x1A059, size: 0x8, addend: 0x0, symName: __ZN7testing8internal15MatcherCastImplIRKPN7prqueueIiE4NODEENS0_9EqMatcherIDnEEE4CastERKS9_, symObjAddr: 0x33F50, symBinAddr: 0x1000366A8, symSize: 0x70 }
  - { offset: 0x1A07D, size: 0x8, addend: 0x0, symName: __ZN7testing8internal15MatcherCastImplIRKPN7prqueueIiE4NODEENS0_9EqMatcherIDnEEE8CastImplILb0EEENS_7MatcherIS7_EERKS9_NSt3__117integral_constantIbLb1EEENSH_IbXT_EEE, symObjAddr: 0x33FC0, symBinAddr: 0x100036718, symSize: 0x9C }
  - { offset: 0x1A0C1, size: 0x8, addend: 0x0, symName: __ZN7testing7MatcherIRKPN7prqueueIiE4NODEEEC1IRKNS_8internal9EqMatcherIDnEEvEEOT_, symObjAddr: 0x3405C, symBinAddr: 0x1000367B4, symSize: 0x6C }
  - { offset: 0x1A104, size: 0x8, addend: 0x0, symName: __ZN7testing7MatcherIRKPN7prqueueIiE4NODEEEC2IRKNS_8internal9EqMatcherIDnEEvEEOT_, symObjAddr: 0x340C8, symBinAddr: 0x100036820, symSize: 0x138 }
  - { offset: 0x1A147, size: 0x8, addend: 0x0, symName: __ZN7testing8internal11MatcherBaseIRKPN7prqueueIiE4NODEEEC2IRKNS0_9EqMatcherIDnEEvEEOT_, symObjAddr: 0x34200, symBinAddr: 0x100036958, symSize: 0x22C }
  - { offset: 0x1A18A, size: 0x8, addend: 0x0, symName: __ZN7testing7MatcherIRKPN7prqueueIiE4NODEEED0Ev, symObjAddr: 0x3442C, symBinAddr: 0x100036B84, symSize: 0x64 }
  - { offset: 0x1A1B6, size: 0x8, addend: 0x0, symName: __ZNK7testing8internal11MatcherBaseIRKPN7prqueueIiE4NODEEE18DescribeNegationToEPNSt3__113basic_ostreamIcNS9_11char_traitsIcEEEE, symObjAddr: 0x34490, symBinAddr: 0x100036BE8, symSize: 0x5BC }
  - { offset: 0x1A1EC, size: 0x8, addend: 0x0, symName: __ZN7testing8internal11MatcherBaseIRKPN7prqueueIiE4NODEEE4InitIRKNS0_9EqMatcherIDnEEEEvOT_, symObjAddr: 0x34A4C, symBinAddr: 0x1000371A4, symSize: 0x1F8 }
  - { offset: 0x1A22A, size: 0x8, addend: 0x0, symName: __ZN7testing8internal11MatcherBaseIRKPN7prqueueIiE4NODEEED1Ev, symObjAddr: 0x34C44, symBinAddr: 0x10003739C, symSize: 0x64 }
  - { offset: 0x1A254, size: 0x8, addend: 0x0, symName: __ZN7testing8internal11MatcherBaseIRKPN7prqueueIiE4NODEEED0Ev, symObjAddr: 0x34CA8, symBinAddr: 0x100037400, symSize: 0x64 }
  - { offset: 0x1A27E, size: 0x8, addend: 0x0, symName: __ZN7testing8internal11MatcherBaseIRKPN7prqueueIiE4NODEEE11ValuePolicyINS0_9EqMatcherIDnEELb1EE4InitERS8_SB_, symObjAddr: 0x34D70, symBinAddr: 0x1000374C8, symSize: 0x80 }
  - { offset: 0x1A2B1, size: 0x8, addend: 0x0, symName: __ZN7testing8internal11MatcherBaseIRKPN7prqueueIiE4NODEEE19MatchAndExplainImplINS8_11ValuePolicyINS0_9EqMatcherIDnEELb1EEEEEDTcldtclsrT_3Getfp_E15MatchAndExplainfp0_clptfp1_6streamEEERKS8_S7_PNS_19MatchResultListenerE, symObjAddr: 0x34DF0, symBinAddr: 0x100037548, symSize: 0x1E8 }
  - { offset: 0x1A2FC, size: 0x8, addend: 0x0, symName: __ZN7testing8internal11MatcherBaseIRKPN7prqueueIiE4NODEEE12DescribeImplINS8_11ValuePolicyINS0_9EqMatcherIDnEELb1EEEEEvRKS8_PNSt3__113basic_ostreamIcNSG_11char_traitsIcEEEEb, symObjAddr: 0x34FD8, symBinAddr: 0x100037730, symSize: 0x1B0 }
  - { offset: 0x1A347, size: 0x8, addend: 0x0, symName: __ZN7testing8internal11MatcherBaseIRKPN7prqueueIiE4NODEEE16GetDescriberImplINS8_11ValuePolicyINS0_9EqMatcherIDnEELb1EEEEEPKNS_25MatcherDescriberInterfaceERKS8_, symObjAddr: 0x35188, symBinAddr: 0x1000378E0, symSize: 0x324 }
  - { offset: 0x1A375, size: 0x8, addend: 0x0, symName: __ZN7testing8internal11MatcherBaseIRKPN7prqueueIiE4NODEEE11ValuePolicyINS0_9EqMatcherIDnEELb1EE3GetERKS8_, symObjAddr: 0x354AC, symBinAddr: 0x100037C04, symSize: 0x64 }
  - { offset: 0x1A3A8, size: 0x8, addend: 0x0, symName: __ZNK7testing8internal14ComparisonBaseINS0_9EqMatcherIDnEEDnNSt3__18equal_toIvEEE15MatchAndExplainIPN7prqueueIiE4NODEEEEbRKT_PNS4_13basic_ostreamIcNS4_11char_traitsIcEEEE, symObjAddr: 0x35510, symBinAddr: 0x100037C68, symSize: 0x2B0 }
  - { offset: 0x1A3F4, size: 0x8, addend: 0x0, symName: __ZNKSt3__18equal_toIvEclB8ne180100IRKPN7prqueueIiE4NODEERKDnEEDTeqclsr3stdE7forwardIT_Efp_Eclsr3stdE7forwardIT0_Efp0_EEOSB_OSC_, symObjAddr: 0x357C0, symBinAddr: 0x100037F18, symSize: 0xD8 }
  - { offset: 0x1A44A, size: 0x8, addend: 0x0, symName: __ZN7testing8internal14ComparisonBaseINS0_9EqMatcherIDnEEDnNSt3__18equal_toIvEEE6UnwrapIDnEERKT_SB_, symObjAddr: 0x35898, symBinAddr: 0x100037FF0, symSize: 0x58 }
  - { offset: 0x1A477, size: 0x8, addend: 0x0, symName: __ZNK7testing8internal14ComparisonBaseINS0_9EqMatcherIDnEEDnNSt3__18equal_toIvEEE18DescribeNegationToEPNS4_13basic_ostreamIcNS4_11char_traitsIcEEEE, symObjAddr: 0x358F0, symBinAddr: 0x100038048, symSize: 0x160 }
  - { offset: 0x1A4AC, size: 0x8, addend: 0x0, symName: __ZNK7testing8internal14ComparisonBaseINS0_9EqMatcherIDnEEDnNSt3__18equal_toIvEEE10DescribeToEPNS4_13basic_ostreamIcNS4_11char_traitsIcEEEE, symObjAddr: 0x35A50, symBinAddr: 0x1000381A8, symSize: 0x168 }
  - { offset: 0x1A4E1, size: 0x8, addend: 0x0, symName: __ZN7testing8internal9EqMatcherIDnE11NegatedDescEv, symObjAddr: 0x35BB8, symBinAddr: 0x100038310, symSize: 0x14 }
  - { offset: 0x1A4F5, size: 0x8, addend: 0x0, symName: __ZN7testing8internal16UniversalPrinterIDnE5PrintERKDnPNSt3__113basic_ostreamIcNS5_11char_traitsIcEEEE, symObjAddr: 0x35C38, symBinAddr: 0x100038390, symSize: 0x34 }
  - { offset: 0x1A528, size: 0x8, addend: 0x0, symName: __ZN7testing8internal9EqMatcherIDnE4DescEv, symObjAddr: 0x35CDC, symBinAddr: 0x100038434, symSize: 0x14 }
  - { offset: 0x1A573, size: 0x8, addend: 0x0, symName: __ZNSt3__112__tuple_leafILm0EPKN7testing8internal11MatcherBaseIRKPN7prqueueIiE4NODEEEELb0EE3getB8ne180100Ev, symObjAddr: 0x35FE0, symBinAddr: 0x100038738, symSize: 0x8C }
  - { offset: 0x1A614, size: 0x8, addend: 0x0, symName: __ZNSt3__15tupleIJPKN7testing8internal11MatcherBaseIRKPN7prqueueIiE4NODEEEEPKNS2_9EqMatcherIDnEEEEC1B8ne180100IJSC_SG_ETnNS_9enable_ifIXsr4_AndINS_17integral_constantIbXeqsZT_sZT_EEENSH_17_EnableUTypesCtorIJDpT_EEEEE5valueEiE4typeELi0EEEDpOSN_, symObjAddr: 0x3606C, symBinAddr: 0x1000387C4, symSize: 0x74 }
  - { offset: 0x1A672, size: 0x8, addend: 0x0, symName: __ZNSt3__15tupleIJPKN7testing8internal11MatcherBaseIRKPN7prqueueIiE4NODEEEEPKNS2_9EqMatcherIDnEEEEC2B8ne180100IJSC_SG_ETnNS_9enable_ifIXsr4_AndINS_17integral_constantIbXeqsZT_sZT_EEENSH_17_EnableUTypesCtorIJDpT_EEEEE5valueEiE4typeELi0EEEDpOSN_, symObjAddr: 0x360E0, symBinAddr: 0x100038838, symSize: 0xE4 }
  - { offset: 0x1A6D0, size: 0x8, addend: 0x0, symName: __ZNSt3__112__tuple_implINS_15__tuple_indicesIJLm0ELm1EEEEJPKN7testing8internal11MatcherBaseIRKPN7prqueueIiE4NODEEEEPKNS4_9EqMatcherIDnEEEEC1B8ne180100IJLm0ELm1EEJSE_SI_ETpTnmJEJEJSE_SI_EEENS1_IJXspT_EEEENS_13__tuple_typesIJDpT0_EEENS1_IJXspT1_EEEENSM_IJDpT2_EEEDpOT3_, symObjAddr: 0x361C4, symBinAddr: 0x10003891C, symSize: 0x74 }
  - { offset: 0x1A780, size: 0x8, addend: 0x0, symName: __ZNSt3__112__tuple_implINS_15__tuple_indicesIJLm0ELm1EEEEJPKN7testing8internal11MatcherBaseIRKPN7prqueueIiE4NODEEEEPKNS4_9EqMatcherIDnEEEEC2B8ne180100IJLm0ELm1EEJSE_SI_ETpTnmJEJEJSE_SI_EEENS1_IJXspT_EEEENS_13__tuple_typesIJDpT0_EEENS1_IJXspT1_EEEENSM_IJDpT2_EEEDpOT3_, symObjAddr: 0x36238, symBinAddr: 0x100038990, symSize: 0x168 }
  - { offset: 0x1A830, size: 0x8, addend: 0x0, symName: __ZNSt3__112__tuple_leafILm0EPKN7testing8internal11MatcherBaseIRKPN7prqueueIiE4NODEEEELb0EEC2B8ne180100ISC_vEEOT_, symObjAddr: 0x363A0, symBinAddr: 0x100038AF8, symSize: 0x124 }
  - { offset: 0x1A873, size: 0x8, addend: 0x0, symName: __ZNSt3__112__tuple_leafILm1EPKN7testing8internal9EqMatcherIDnEELb0EEC2B8ne180100IS6_vEEOT_, symObjAddr: 0x364C4, symBinAddr: 0x100038C1C, symSize: 0x124 }
  - { offset: 0x1A8B6, size: 0x8, addend: 0x0, symName: __ZN7testing8internal11MatcherBaseIRKPN7prqueueIiE4NODEEED2Ev, symObjAddr: 0x365E8, symBinAddr: 0x100038D40, symSize: 0x158 }
  - { offset: 0x1A8E0, size: 0x8, addend: 0x0, symName: __ZN7testing8internal11MatcherBaseIRKPN7prqueueIiE4NODEEE7DestroyEv, symObjAddr: 0x36740, symBinAddr: 0x100038E98, symSize: 0x4A8 }
  - { offset: 0x1A906, size: 0x8, addend: 0x0, symName: __ZNK7testing8internal11MatcherBaseIRKPN7prqueueIiE4NODEEE8IsSharedEv, symObjAddr: 0x36BE8, symBinAddr: 0x100039340, symSize: 0x29C }
  - { offset: 0x1A92C, size: 0x8, addend: 0x0, symName: __ZNK7testing8internal11MatcherBaseIRKPN7prqueueIiE4NODEEE15MatchAndExplainES7_PNS_19MatchResultListenerE, symObjAddr: 0x36E84, symBinAddr: 0x1000395DC, symSize: 0x5FC }
  - { offset: 0x1A971, size: 0x8, addend: 0x0, symName: __ZN7testing8internal16UniversalPrinterIPN7prqueueIiE4NODEEE5PrintERKS5_PNSt3__113basic_ostreamIcNS9_11char_traitsIcEEEE, symObjAddr: 0x37520, symBinAddr: 0x100039C78, symSize: 0x6C }
  - { offset: 0x1A9A4, size: 0x8, addend: 0x0, symName: __ZN7testing8internal14PointerPrinter10PrintValueIN7prqueueIiE4NODEEEEvPT_PNSt3__113basic_ostreamIcNS8_11char_traitsIcEEEE, symObjAddr: 0x37664, symBinAddr: 0x100039DBC, symSize: 0x15C }
  - { offset: 0x1A9DE, size: 0x8, addend: 0x0, symName: __ZN7testing7MatcherIRKPN7prqueueIiE4NODEEED2Ev, symObjAddr: 0x377C0, symBinAddr: 0x100039F18, symSize: 0x64 }
  - { offset: 0x1AA0A, size: 0x8, addend: 0x0, symName: __ZN7testing8internal9NeMatcherIDnEC1ERKDn, symObjAddr: 0x37824, symBinAddr: 0x100039F7C, symSize: 0x6C }
  - { offset: 0x1AA43, size: 0x8, addend: 0x0, symName: __ZN7testing8internal9NeMatcherIDnEC2ERKDn, symObjAddr: 0x37890, symBinAddr: 0x100039FE8, symSize: 0xD8 }
  - { offset: 0x1AA7C, size: 0x8, addend: 0x0, symName: __ZN7testing8internal14ComparisonBaseINS0_9NeMatcherIDnEEDnNSt3__112not_equal_toIvEEEC2ERKDn, symObjAddr: 0x37968, symBinAddr: 0x10003A0C0, symSize: 0xAC }
  - { offset: 0x1AAB5, size: 0x8, addend: 0x0, symName: __ZN7testing8internal29PredicateFormatterFromMatcherINS0_9NeMatcherIDnEEEC1ES3_, symObjAddr: 0x37A14, symBinAddr: 0x10003A16C, symSize: 0x6C }
  - { offset: 0x1AAEE, size: 0x8, addend: 0x0, symName: __ZN7testing8internal29PredicateFormatterFromMatcherINS0_9NeMatcherIDnEEEC2ES3_, symObjAddr: 0x37A80, symBinAddr: 0x10003A1D8, symSize: 0x78 }
  - { offset: 0x1AB27, size: 0x8, addend: 0x0, symName: __ZN7testing8internal15MatcherCastImplIRKPN7prqueueIiE4NODEENS0_9NeMatcherIDnEEE4CastERKS9_, symObjAddr: 0x37BD8, symBinAddr: 0x10003A330, symSize: 0x70 }
  - { offset: 0x1AB4B, size: 0x8, addend: 0x0, symName: __ZN7testing8internal15MatcherCastImplIRKPN7prqueueIiE4NODEENS0_9NeMatcherIDnEEE8CastImplILb0EEENS_7MatcherIS7_EERKS9_NSt3__117integral_constantIbLb1EEENSH_IbXT_EEE, symObjAddr: 0x37C48, symBinAddr: 0x10003A3A0, symSize: 0x9C }
  - { offset: 0x1AB8F, size: 0x8, addend: 0x0, symName: __ZN7testing7MatcherIRKPN7prqueueIiE4NODEEEC1IRKNS_8internal9NeMatcherIDnEEvEEOT_, symObjAddr: 0x37CE4, symBinAddr: 0x10003A43C, symSize: 0x6C }
  - { offset: 0x1ABD2, size: 0x8, addend: 0x0, symName: __ZN7testing7MatcherIRKPN7prqueueIiE4NODEEEC2IRKNS_8internal9NeMatcherIDnEEvEEOT_, symObjAddr: 0x37D50, symBinAddr: 0x10003A4A8, symSize: 0x138 }
  - { offset: 0x1AC15, size: 0x8, addend: 0x0, symName: __ZN7testing8internal11MatcherBaseIRKPN7prqueueIiE4NODEEEC2IRKNS0_9NeMatcherIDnEEvEEOT_, symObjAddr: 0x37E88, symBinAddr: 0x10003A5E0, symSize: 0x22C }
  - { offset: 0x1AC58, size: 0x8, addend: 0x0, symName: __ZN7testing8internal11MatcherBaseIRKPN7prqueueIiE4NODEEE4InitIRKNS0_9NeMatcherIDnEEEEvOT_, symObjAddr: 0x380B4, symBinAddr: 0x10003A80C, symSize: 0x1F8 }
  - { offset: 0x1AC96, size: 0x8, addend: 0x0, symName: __ZN7testing8internal11MatcherBaseIRKPN7prqueueIiE4NODEEE11ValuePolicyINS0_9NeMatcherIDnEELb1EE4InitERS8_SB_, symObjAddr: 0x38310, symBinAddr: 0x10003AA68, symSize: 0x80 }
  - { offset: 0x1ACC9, size: 0x8, addend: 0x0, symName: __ZN7testing8internal11MatcherBaseIRKPN7prqueueIiE4NODEEE19MatchAndExplainImplINS8_11ValuePolicyINS0_9NeMatcherIDnEELb1EEEEEDTcldtclsrT_3Getfp_E15MatchAndExplainfp0_clptfp1_6streamEEERKS8_S7_PNS_19MatchResultListenerE, symObjAddr: 0x38390, symBinAddr: 0x10003AAE8, symSize: 0x1E8 }
  - { offset: 0x1AD14, size: 0x8, addend: 0x0, symName: __ZN7testing8internal11MatcherBaseIRKPN7prqueueIiE4NODEEE12DescribeImplINS8_11ValuePolicyINS0_9NeMatcherIDnEELb1EEEEEvRKS8_PNSt3__113basic_ostreamIcNSG_11char_traitsIcEEEEb, symObjAddr: 0x38578, symBinAddr: 0x10003ACD0, symSize: 0x1B0 }
  - { offset: 0x1AD5F, size: 0x8, addend: 0x0, symName: __ZN7testing8internal11MatcherBaseIRKPN7prqueueIiE4NODEEE16GetDescriberImplINS8_11ValuePolicyINS0_9NeMatcherIDnEELb1EEEEEPKNS_25MatcherDescriberInterfaceERKS8_, symObjAddr: 0x38728, symBinAddr: 0x10003AE80, symSize: 0x324 }
  - { offset: 0x1AD8D, size: 0x8, addend: 0x0, symName: __ZN7testing8internal11MatcherBaseIRKPN7prqueueIiE4NODEEE11ValuePolicyINS0_9NeMatcherIDnEELb1EE3GetERKS8_, symObjAddr: 0x38A4C, symBinAddr: 0x10003B1A4, symSize: 0x64 }
  - { offset: 0x1ADC0, size: 0x8, addend: 0x0, symName: __ZNK7testing8internal14ComparisonBaseINS0_9NeMatcherIDnEEDnNSt3__112not_equal_toIvEEE15MatchAndExplainIPN7prqueueIiE4NODEEEEbRKT_PNS4_13basic_ostreamIcNS4_11char_traitsIcEEEE, symObjAddr: 0x38AB0, symBinAddr: 0x10003B208, symSize: 0x2B0 }
  - { offset: 0x1AE16, size: 0x8, addend: 0x0, symName: __ZNKSt3__112not_equal_toIvEclB8ne180100IRKPN7prqueueIiE4NODEERKDnEEDTneclsr3stdE7forwardIT_Efp_Eclsr3stdE7forwardIT0_Efp0_EEOSB_OSC_, symObjAddr: 0x38D60, symBinAddr: 0x10003B4B8, symSize: 0xD8 }
  - { offset: 0x1AE6C, size: 0x8, addend: 0x0, symName: __ZN7testing8internal14ComparisonBaseINS0_9NeMatcherIDnEEDnNSt3__112not_equal_toIvEEE6UnwrapIDnEERKT_SB_, symObjAddr: 0x38E38, symBinAddr: 0x10003B590, symSize: 0x58 }
  - { offset: 0x1AE99, size: 0x8, addend: 0x0, symName: __ZNK7testing8internal14ComparisonBaseINS0_9NeMatcherIDnEEDnNSt3__112not_equal_toIvEEE18DescribeNegationToEPNS4_13basic_ostreamIcNS4_11char_traitsIcEEEE, symObjAddr: 0x38E90, symBinAddr: 0x10003B5E8, symSize: 0x160 }
  - { offset: 0x1AECE, size: 0x8, addend: 0x0, symName: __ZNK7testing8internal14ComparisonBaseINS0_9NeMatcherIDnEEDnNSt3__112not_equal_toIvEEE10DescribeToEPNS4_13basic_ostreamIcNS4_11char_traitsIcEEEE, symObjAddr: 0x38FF0, symBinAddr: 0x10003B748, symSize: 0x168 }
  - { offset: 0x1AF03, size: 0x8, addend: 0x0, symName: __ZN7testing8internal9NeMatcherIDnE11NegatedDescEv, symObjAddr: 0x39158, symBinAddr: 0x10003B8B0, symSize: 0x14 }
  - { offset: 0x1AF17, size: 0x8, addend: 0x0, symName: __ZN7testing8internal9NeMatcherIDnE4DescEv, symObjAddr: 0x3916C, symBinAddr: 0x10003B8C4, symSize: 0x14 }
  - { offset: 0x1AFA0, size: 0x8, addend: 0x0, symName: __ZNSt3__15tupleIJPKN7testing8internal11MatcherBaseIRKPN7prqueueIiE4NODEEEEPKNS2_9NeMatcherIDnEEEEC1B8ne180100IJSC_SG_ETnNS_9enable_ifIXsr4_AndINS_17integral_constantIbXeqsZT_sZT_EEENSH_17_EnableUTypesCtorIJDpT_EEEEE5valueEiE4typeELi0EEEDpOSN_, symObjAddr: 0x39470, symBinAddr: 0x10003BBC8, symSize: 0x74 }
  - { offset: 0x1AFFE, size: 0x8, addend: 0x0, symName: __ZNSt3__15tupleIJPKN7testing8internal11MatcherBaseIRKPN7prqueueIiE4NODEEEEPKNS2_9NeMatcherIDnEEEEC2B8ne180100IJSC_SG_ETnNS_9enable_ifIXsr4_AndINS_17integral_constantIbXeqsZT_sZT_EEENSH_17_EnableUTypesCtorIJDpT_EEEEE5valueEiE4typeELi0EEEDpOSN_, symObjAddr: 0x394E4, symBinAddr: 0x10003BC3C, symSize: 0xE4 }
  - { offset: 0x1B05C, size: 0x8, addend: 0x0, symName: __ZNSt3__112__tuple_implINS_15__tuple_indicesIJLm0ELm1EEEEJPKN7testing8internal11MatcherBaseIRKPN7prqueueIiE4NODEEEEPKNS4_9NeMatcherIDnEEEEC1B8ne180100IJLm0ELm1EEJSE_SI_ETpTnmJEJEJSE_SI_EEENS1_IJXspT_EEEENS_13__tuple_typesIJDpT0_EEENS1_IJXspT1_EEEENSM_IJDpT2_EEEDpOT3_, symObjAddr: 0x395C8, symBinAddr: 0x10003BD20, symSize: 0x74 }
  - { offset: 0x1B10C, size: 0x8, addend: 0x0, symName: __ZNSt3__112__tuple_implINS_15__tuple_indicesIJLm0ELm1EEEEJPKN7testing8internal11MatcherBaseIRKPN7prqueueIiE4NODEEEEPKNS4_9NeMatcherIDnEEEEC2B8ne180100IJLm0ELm1EEJSE_SI_ETpTnmJEJEJSE_SI_EEENS1_IJXspT_EEEENS_13__tuple_typesIJDpT0_EEENS1_IJXspT1_EEEENSM_IJDpT2_EEEDpOT3_, symObjAddr: 0x3963C, symBinAddr: 0x10003BD94, symSize: 0x168 }
  - { offset: 0x1B1BC, size: 0x8, addend: 0x0, symName: __ZNSt3__112__tuple_leafILm1EPKN7testing8internal9NeMatcherIDnEELb0EEC2B8ne180100IS6_vEEOT_, symObjAddr: 0x397A4, symBinAddr: 0x10003BEFC, symSize: 0x12C }
  - { offset: 0x1B1FF, size: 0x8, addend: 0x0, symName: __ZNK7testing8internal11MatcherBaseIRKiE7MatchesES3_, symObjAddr: 0x39938, symBinAddr: 0x10003C090, symSize: 0x368 }
  - { offset: 0x1B247, size: 0x8, addend: 0x0, symName: __ZNK7testing8internal11MatcherBaseIRKiE10DescribeToEPNSt3__113basic_ostreamIcNS5_11char_traitsIcEEEE, symObjAddr: 0x39CA0, symBinAddr: 0x10003C3F8, symSize: 0x5C4 }
  - { offset: 0x1B28C, size: 0x8, addend: 0x0, symName: __ZN7testing7MatcherIRKiED1Ev, symObjAddr: 0x3AF04, symBinAddr: 0x10003D65C, symSize: 0x6C }
  - { offset: 0x1B2B8, size: 0x8, addend: 0x0, symName: __ZN7testing8internal15MatcherCastImplIRKiNS0_9EqMatcherIiEEE4CastERKS5_, symObjAddr: 0x3AFE0, symBinAddr: 0x10003D738, symSize: 0x70 }
  - { offset: 0x1B2DC, size: 0x8, addend: 0x0, symName: __ZN7testing8internal15MatcherCastImplIRKiNS0_9EqMatcherIiEEE8CastImplILb0EEENS_7MatcherIS3_EERKS5_NSt3__117integral_constantIbLb1EEENSD_IbXT_EEE, symObjAddr: 0x3B050, symBinAddr: 0x10003D7A8, symSize: 0x9C }
  - { offset: 0x1B320, size: 0x8, addend: 0x0, symName: __ZN7testing7MatcherIRKiEC1IRKNS_8internal9EqMatcherIiEEvEEOT_, symObjAddr: 0x3B0EC, symBinAddr: 0x10003D844, symSize: 0x6C }
  - { offset: 0x1B363, size: 0x8, addend: 0x0, symName: __ZN7testing7MatcherIRKiEC2IRKNS_8internal9EqMatcherIiEEvEEOT_, symObjAddr: 0x3B158, symBinAddr: 0x10003D8B0, symSize: 0x138 }
  - { offset: 0x1B3A6, size: 0x8, addend: 0x0, symName: __ZN7testing8internal11MatcherBaseIRKiEC2IRKNS0_9EqMatcherIiEEvEEOT_, symObjAddr: 0x3B290, symBinAddr: 0x10003D9E8, symSize: 0x22C }
  - { offset: 0x1B3E9, size: 0x8, addend: 0x0, symName: __ZN7testing7MatcherIRKiED0Ev, symObjAddr: 0x3B4BC, symBinAddr: 0x10003DC14, symSize: 0x64 }
  - { offset: 0x1B415, size: 0x8, addend: 0x0, symName: __ZNK7testing8internal11MatcherBaseIRKiE18DescribeNegationToEPNSt3__113basic_ostreamIcNS5_11char_traitsIcEEEE, symObjAddr: 0x3B520, symBinAddr: 0x10003DC78, symSize: 0x5BC }
  - { offset: 0x1B44B, size: 0x8, addend: 0x0, symName: __ZN7testing8internal11MatcherBaseIRKiE4InitIRKNS0_9EqMatcherIiEEEEvOT_, symObjAddr: 0x3BADC, symBinAddr: 0x10003E234, symSize: 0x1FC }
  - { offset: 0x1B489, size: 0x8, addend: 0x0, symName: __ZN7testing8internal11MatcherBaseIRKiED1Ev, symObjAddr: 0x3BCD8, symBinAddr: 0x10003E430, symSize: 0x64 }
  - { offset: 0x1B4B3, size: 0x8, addend: 0x0, symName: __ZN7testing8internal11MatcherBaseIRKiED0Ev, symObjAddr: 0x3BD3C, symBinAddr: 0x10003E494, symSize: 0x64 }
  - { offset: 0x1B4DD, size: 0x8, addend: 0x0, symName: __ZN7testing8internal11MatcherBaseIRKiE11ValuePolicyINS0_9EqMatcherIiEELb1EE4InitERS4_S7_, symObjAddr: 0x3BE04, symBinAddr: 0x10003E55C, symSize: 0x84 }
  - { offset: 0x1B510, size: 0x8, addend: 0x0, symName: __ZN7testing8internal11MatcherBaseIRKiE19MatchAndExplainImplINS4_11ValuePolicyINS0_9EqMatcherIiEELb1EEEEEDTcldtclsrT_3Getfp_E15MatchAndExplainfp0_clptfp1_6streamEEERKS4_S3_PNS_19MatchResultListenerE, symObjAddr: 0x3BE88, symBinAddr: 0x10003E5E0, symSize: 0x1E8 }
  - { offset: 0x1B55B, size: 0x8, addend: 0x0, symName: __ZN7testing8internal11MatcherBaseIRKiE12DescribeImplINS4_11ValuePolicyINS0_9EqMatcherIiEELb1EEEEEvRKS4_PNSt3__113basic_ostreamIcNSC_11char_traitsIcEEEEb, symObjAddr: 0x3C070, symBinAddr: 0x10003E7C8, symSize: 0x1B0 }
  - { offset: 0x1B5A6, size: 0x8, addend: 0x0, symName: __ZN7testing8internal11MatcherBaseIRKiE16GetDescriberImplINS4_11ValuePolicyINS0_9EqMatcherIiEELb1EEEEEPKNS_25MatcherDescriberInterfaceERKS4_, symObjAddr: 0x3C220, symBinAddr: 0x10003E978, symSize: 0x324 }
  - { offset: 0x1B5D4, size: 0x8, addend: 0x0, symName: __ZN7testing8internal11MatcherBaseIRKiE11ValuePolicyINS0_9EqMatcherIiEELb1EE3GetERKS4_, symObjAddr: 0x3C544, symBinAddr: 0x10003EC9C, symSize: 0x64 }
  - { offset: 0x1B607, size: 0x8, addend: 0x0, symName: __ZNK7testing8internal14ComparisonBaseINS0_9EqMatcherIiEEiNSt3__18equal_toIvEEE15MatchAndExplainIiEEbRKT_PNS4_13basic_ostreamIcNS4_11char_traitsIcEEEE, symObjAddr: 0x3C5A8, symBinAddr: 0x10003ED00, symSize: 0x2B0 }
  - { offset: 0x1B653, size: 0x8, addend: 0x0, symName: __ZNKSt3__18equal_toIvEclB8ne180100IRKiS4_EEDTeqclsr3stdE7forwardIT_Efp_Eclsr3stdE7forwardIT0_Efp0_EEOS5_OS6_, symObjAddr: 0x3C858, symBinAddr: 0x10003EFB0, symSize: 0x198 }
  - { offset: 0x1B6E0, size: 0x8, addend: 0x0, symName: __ZNSt3__112__tuple_leafILm0EPKN7testing8internal11MatcherBaseIRKiEELb0EE3getB8ne180100Ev, symObjAddr: 0x3CCE0, symBinAddr: 0x10003F438, symSize: 0x8C }
  - { offset: 0x1B749, size: 0x8, addend: 0x0, symName: __ZNSt3__15tupleIJPKN7testing8internal11MatcherBaseIRKiEEPKNS2_9EqMatcherIiEEEEC1B8ne180100IJS8_SC_ETnNS_9enable_ifIXsr4_AndINS_17integral_constantIbXeqsZT_sZT_EEENSD_17_EnableUTypesCtorIJDpT_EEEEE5valueEiE4typeELi0EEEDpOSJ_, symObjAddr: 0x3CD6C, symBinAddr: 0x10003F4C4, symSize: 0x74 }
  - { offset: 0x1B7A7, size: 0x8, addend: 0x0, symName: __ZNSt3__15tupleIJPKN7testing8internal11MatcherBaseIRKiEEPKNS2_9EqMatcherIiEEEEC2B8ne180100IJS8_SC_ETnNS_9enable_ifIXsr4_AndINS_17integral_constantIbXeqsZT_sZT_EEENSD_17_EnableUTypesCtorIJDpT_EEEEE5valueEiE4typeELi0EEEDpOSJ_, symObjAddr: 0x3CDE0, symBinAddr: 0x10003F538, symSize: 0xE4 }
  - { offset: 0x1B805, size: 0x8, addend: 0x0, symName: __ZNSt3__112__tuple_implINS_15__tuple_indicesIJLm0ELm1EEEEJPKN7testing8internal11MatcherBaseIRKiEEPKNS4_9EqMatcherIiEEEEC1B8ne180100IJLm0ELm1EEJSA_SE_ETpTnmJEJEJSA_SE_EEENS1_IJXspT_EEEENS_13__tuple_typesIJDpT0_EEENS1_IJXspT1_EEEENSI_IJDpT2_EEEDpOT3_, symObjAddr: 0x3CEC4, symBinAddr: 0x10003F61C, symSize: 0x74 }
  - { offset: 0x1B8B5, size: 0x8, addend: 0x0, symName: __ZNSt3__112__tuple_implINS_15__tuple_indicesIJLm0ELm1EEEEJPKN7testing8internal11MatcherBaseIRKiEEPKNS4_9EqMatcherIiEEEEC2B8ne180100IJLm0ELm1EEJSA_SE_ETpTnmJEJEJSA_SE_EEENS1_IJXspT_EEEENS_13__tuple_typesIJDpT0_EEENS1_IJXspT1_EEEENSI_IJDpT2_EEEDpOT3_, symObjAddr: 0x3CF38, symBinAddr: 0x10003F690, symSize: 0x168 }
  - { offset: 0x1B965, size: 0x8, addend: 0x0, symName: __ZNSt3__112__tuple_leafILm0EPKN7testing8internal11MatcherBaseIRKiEELb0EEC2B8ne180100IS8_vEEOT_, symObjAddr: 0x3D0A0, symBinAddr: 0x10003F7F8, symSize: 0x124 }
  - { offset: 0x1B9A8, size: 0x8, addend: 0x0, symName: __ZN7testing8internal11MatcherBaseIRKiED2Ev, symObjAddr: 0x3D1C4, symBinAddr: 0x10003F91C, symSize: 0x158 }
  - { offset: 0x1B9D2, size: 0x8, addend: 0x0, symName: __ZN7testing8internal11MatcherBaseIRKiE7DestroyEv, symObjAddr: 0x3D31C, symBinAddr: 0x10003FA74, symSize: 0x4A8 }
  - { offset: 0x1B9F8, size: 0x8, addend: 0x0, symName: __ZNK7testing8internal11MatcherBaseIRKiE8IsSharedEv, symObjAddr: 0x3D7C4, symBinAddr: 0x10003FF1C, symSize: 0x29C }
  - { offset: 0x1BA1E, size: 0x8, addend: 0x0, symName: __ZNK7testing8internal11MatcherBaseIRKiE15MatchAndExplainES3_PNS_19MatchResultListenerE, symObjAddr: 0x3DA60, symBinAddr: 0x1000401B8, symSize: 0x5FC }
  - { offset: 0x1BA63, size: 0x8, addend: 0x0, symName: __ZN7testing7MatcherIRKiED2Ev, symObjAddr: 0x3E088, symBinAddr: 0x1000407E0, symSize: 0x64 }
  - { offset: 0x1BA8F, size: 0x8, addend: 0x0, symName: __ZN7prqueueINSt3__112basic_stringIcNS0_11char_traitsIcEENS0_9allocatorIcEEEEEC2Ev, symObjAddr: 0x3E0EC, symBinAddr: 0x100040844, symSize: 0x138 }
  - { offset: 0x1BAB9, size: 0x8, addend: 0x0, symName: __ZN7prqueueINSt3__112basic_stringIcNS0_11char_traitsIcEENS0_9allocatorIcEEEEED2Ev, symObjAddr: 0x3E224, symBinAddr: 0x10004097C, symSize: 0xC0 }
  - { offset: 0x1BAE3, size: 0x8, addend: 0x0, symName: __ZN7prqueueINSt3__112basic_stringIcNS0_11char_traitsIcEENS0_9allocatorIcEEEEE13clearChildrenEPNS7_4NODEE, symObjAddr: 0x3E2E4, symBinAddr: 0x100040A3C, symSize: 0x308 }
  - { offset: 0x1BB1C, size: 0x8, addend: 0x0, symName: __ZN7prqueueINSt3__112basic_stringIcNS0_11char_traitsIcEENS0_9allocatorIcEEEEE4NODED1Ev, symObjAddr: 0x3E5EC, symBinAddr: 0x100040D44, symSize: 0x64 }
  - { offset: 0x1BB48, size: 0x8, addend: 0x0, symName: __ZN7prqueueINSt3__112basic_stringIcNS0_11char_traitsIcEENS0_9allocatorIcEEEEE4NODED2Ev, symObjAddr: 0x3E650, symBinAddr: 0x100040DA8, symSize: 0x68 }
  - { offset: 0x1BB74, size: 0x8, addend: 0x0, symName: __ZN7testing8internal9EqMatcherIPKcEC1ERKS3_, symObjAddr: 0x3E6B8, symBinAddr: 0x100040E10, symSize: 0x6C }
  - { offset: 0x1BBAD, size: 0x8, addend: 0x0, symName: __ZN7testing8internal9EqMatcherIPKcEC2ERKS3_, symObjAddr: 0x3E724, symBinAddr: 0x100040E7C, symSize: 0xD8 }
  - { offset: 0x1BBE6, size: 0x8, addend: 0x0, symName: __ZN7testing8internal14ComparisonBaseINS0_9EqMatcherIPKcEES4_NSt3__18equal_toIvEEEC2ERKS4_, symObjAddr: 0x3E7FC, symBinAddr: 0x100040F54, symSize: 0xE8 }
  - { offset: 0x1BC1F, size: 0x8, addend: 0x0, symName: __ZN7testing8internal29PredicateFormatterFromMatcherINS0_9EqMatcherIPKcEEEC1ES5_, symObjAddr: 0x3E8E4, symBinAddr: 0x10004103C, symSize: 0x6C }
  - { offset: 0x1BC58, size: 0x8, addend: 0x0, symName: __ZN7testing8internal29PredicateFormatterFromMatcherINS0_9EqMatcherIPKcEEEC2ES5_, symObjAddr: 0x3E950, symBinAddr: 0x1000410A8, symSize: 0x70 }
  - { offset: 0x1BC91, size: 0x8, addend: 0x0, symName: __ZNSt3__119basic_ostringstreamIcNS_11char_traitsIcEENS_9allocatorIcEEEC1B8ne180100Ev, symObjAddr: 0x3E9C0, symBinAddr: 0x100041118, symSize: 0x32C }
  - { offset: 0x1BCBB, size: 0x8, addend: 0x0, symName: __ZNK7prqueueINSt3__112basic_stringIcNS0_11char_traitsIcEENS0_9allocatorIcEEEEE13printChildrenEPNS7_4NODEERNS0_19basic_ostringstreamIcS3_S5_EE, symObjAddr: 0x3ECEC, symBinAddr: 0x100041444, symSize: 0xB84 }
  - { offset: 0x1BD19, size: 0x8, addend: 0x0, symName: __ZNKRSt3__119basic_ostringstreamIcNS_11char_traitsIcEENS_9allocatorIcEEE3strB8ne180100Ev, symObjAddr: 0x3F870, symBinAddr: 0x100041FC8, symSize: 0x1B8 }
  - { offset: 0x1BD44, size: 0x8, addend: 0x0, symName: __ZNSt3__119basic_ostringstreamIcNS_11char_traitsIcEENS_9allocatorIcEEED1Ev, symObjAddr: 0x3FA28, symBinAddr: 0x100042180, symSize: 0x78 }
  - { offset: 0x1BD71, size: 0x8, addend: 0x0, symName: __ZNSt3__113basic_ostreamIcNS_11char_traitsIcEEEC2B8ne180100EPNS_15basic_streambufIcS2_EE, symObjAddr: 0x3FAA0, symBinAddr: 0x1000421F8, symSize: 0x334 }
  - { offset: 0x1BDB6, size: 0x8, addend: 0x0, symName: __ZNSt3__119basic_ostringstreamIcNS_11char_traitsIcEENS_9allocatorIcEEED2Ev, symObjAddr: 0x3FDD4, symBinAddr: 0x10004252C, symSize: 0x1B8 }
  - { offset: 0x1BDF0, size: 0x8, addend: 0x0, symName: __ZTv0_n24_NSt3__119basic_ostringstreamIcNS_11char_traitsIcEENS_9allocatorIcEEED1Ev, symObjAddr: 0x3FF8C, symBinAddr: 0x1000426E4, symSize: 0xA8 }
  - { offset: 0x1BE07, size: 0x8, addend: 0x0, symName: __ZNK7testing8internal11MatcherBaseIRKNSt3__112basic_stringIcNS2_11char_traitsIcEENS2_9allocatorIcEEEEE7MatchesESA_, symObjAddr: 0x4009C, symBinAddr: 0x1000427F4, symSize: 0x368 }
  - { offset: 0x1BE4F, size: 0x8, addend: 0x0, symName: __ZNK7testing8internal11MatcherBaseIRKNSt3__112basic_stringIcNS2_11char_traitsIcEENS2_9allocatorIcEEEEE10DescribeToEPNS2_13basic_ostreamIcS5_EE, symObjAddr: 0x40404, symBinAddr: 0x100042B5C, symSize: 0x5C4 }
  - { offset: 0x1BE99, size: 0x8, addend: 0x0, symName: __ZN7testing7MatcherIRKNSt3__112basic_stringIcNS1_11char_traitsIcEENS1_9allocatorIcEEEEED1Ev, symObjAddr: 0x41668, symBinAddr: 0x100043DC0, symSize: 0x6C }
  - { offset: 0x1BEC6, size: 0x8, addend: 0x0, symName: __ZN7testing8internal15MatcherCastImplIRKNSt3__112basic_stringIcNS2_11char_traitsIcEENS2_9allocatorIcEEEENS0_9EqMatcherIPKcEEE4CastERKSE_, symObjAddr: 0x41744, symBinAddr: 0x100043E9C, symSize: 0x70 }
  - { offset: 0x1BEEA, size: 0x8, addend: 0x0, symName: __ZN7testing8internal15MatcherCastImplIRKNSt3__112basic_stringIcNS2_11char_traitsIcEENS2_9allocatorIcEEEENS0_9EqMatcherIPKcEEE8CastImplILb0EEENS_7MatcherISA_EERKSE_NS2_17integral_constantIbLb1EEENSL_IbXT_EEE, symObjAddr: 0x417B4, symBinAddr: 0x100043F0C, symSize: 0x9C }
  - { offset: 0x1BF2E, size: 0x8, addend: 0x0, symName: __ZN7testing7MatcherIRKNSt3__112basic_stringIcNS1_11char_traitsIcEENS1_9allocatorIcEEEEEC1IRKNS_8internal9EqMatcherIPKcEEvEEOT_, symObjAddr: 0x41850, symBinAddr: 0x100043FA8, symSize: 0x6C }
  - { offset: 0x1BF71, size: 0x8, addend: 0x0, symName: __ZN7testing7MatcherIRKNSt3__112basic_stringIcNS1_11char_traitsIcEENS1_9allocatorIcEEEEEC2IRKNS_8internal9EqMatcherIPKcEEvEEOT_, symObjAddr: 0x418BC, symBinAddr: 0x100044014, symSize: 0x138 }
  - { offset: 0x1BFB4, size: 0x8, addend: 0x0, symName: __ZN7testing8internal11MatcherBaseIRKNSt3__112basic_stringIcNS2_11char_traitsIcEENS2_9allocatorIcEEEEEC2IRKNS0_9EqMatcherIPKcEEvEEOT_, symObjAddr: 0x419F4, symBinAddr: 0x10004414C, symSize: 0x22C }
  - { offset: 0x1BFF7, size: 0x8, addend: 0x0, symName: __ZN7testing7MatcherIRKNSt3__112basic_stringIcNS1_11char_traitsIcEENS1_9allocatorIcEEEEED0Ev, symObjAddr: 0x41C20, symBinAddr: 0x100044378, symSize: 0x64 }
  - { offset: 0x1C024, size: 0x8, addend: 0x0, symName: __ZNK7testing8internal11MatcherBaseIRKNSt3__112basic_stringIcNS2_11char_traitsIcEENS2_9allocatorIcEEEEE18DescribeNegationToEPNS2_13basic_ostreamIcS5_EE, symObjAddr: 0x41C84, symBinAddr: 0x1000443DC, symSize: 0x5BC }
  - { offset: 0x1C05A, size: 0x8, addend: 0x0, symName: __ZN7testing8internal11MatcherBaseIRKNSt3__112basic_stringIcNS2_11char_traitsIcEENS2_9allocatorIcEEEEE4InitIRKNS0_9EqMatcherIPKcEEEEvOT_, symObjAddr: 0x42240, symBinAddr: 0x100044998, symSize: 0x1F8 }
  - { offset: 0x1C098, size: 0x8, addend: 0x0, symName: __ZN7testing8internal11MatcherBaseIRKNSt3__112basic_stringIcNS2_11char_traitsIcEENS2_9allocatorIcEEEEED1Ev, symObjAddr: 0x42438, symBinAddr: 0x100044B90, symSize: 0x64 }
  - { offset: 0x1C0C2, size: 0x8, addend: 0x0, symName: __ZN7testing8internal11MatcherBaseIRKNSt3__112basic_stringIcNS2_11char_traitsIcEENS2_9allocatorIcEEEEED0Ev, symObjAddr: 0x4249C, symBinAddr: 0x100044BF4, symSize: 0x64 }
  - { offset: 0x1C0EC, size: 0x8, addend: 0x0, symName: __ZN7testing8internal11MatcherBaseIRKNSt3__112basic_stringIcNS2_11char_traitsIcEENS2_9allocatorIcEEEEE11ValuePolicyINS0_9EqMatcherIPKcEELb1EE4InitERSB_SG_, symObjAddr: 0x42564, symBinAddr: 0x100044CBC, symSize: 0x80 }
  - { offset: 0x1C11F, size: 0x8, addend: 0x0, symName: __ZN7testing8internal11MatcherBaseIRKNSt3__112basic_stringIcNS2_11char_traitsIcEENS2_9allocatorIcEEEEE19MatchAndExplainImplINSB_11ValuePolicyINS0_9EqMatcherIPKcEELb1EEEEEDTcldtclsrT_3Getfp_E15MatchAndExplainfp0_clptfp1_6streamEEERKSB_SA_PNS_19MatchResultListenerE, symObjAddr: 0x425E4, symBinAddr: 0x100044D3C, symSize: 0x1E8 }
  - { offset: 0x1C16A, size: 0x8, addend: 0x0, symName: __ZN7testing8internal11MatcherBaseIRKNSt3__112basic_stringIcNS2_11char_traitsIcEENS2_9allocatorIcEEEEE12DescribeImplINSB_11ValuePolicyINS0_9EqMatcherIPKcEELb1EEEEEvRKSB_PNS2_13basic_ostreamIcS5_EEb, symObjAddr: 0x427CC, symBinAddr: 0x100044F24, symSize: 0x1B0 }
  - { offset: 0x1C1B5, size: 0x8, addend: 0x0, symName: __ZN7testing8internal11MatcherBaseIRKNSt3__112basic_stringIcNS2_11char_traitsIcEENS2_9allocatorIcEEEEE16GetDescriberImplINSB_11ValuePolicyINS0_9EqMatcherIPKcEELb1EEEEEPKNS_25MatcherDescriberInterfaceERKSB_, symObjAddr: 0x4297C, symBinAddr: 0x1000450D4, symSize: 0x324 }
  - { offset: 0x1C1E3, size: 0x8, addend: 0x0, symName: __ZN7testing8internal11MatcherBaseIRKNSt3__112basic_stringIcNS2_11char_traitsIcEENS2_9allocatorIcEEEEE11ValuePolicyINS0_9EqMatcherIPKcEELb1EE3GetERKSB_, symObjAddr: 0x42CA0, symBinAddr: 0x1000453F8, symSize: 0x64 }
  - { offset: 0x1C216, size: 0x8, addend: 0x0, symName: __ZNK7testing8internal14ComparisonBaseINS0_9EqMatcherIPKcEES4_NSt3__18equal_toIvEEE15MatchAndExplainINS6_12basic_stringIcNS6_11char_traitsIcEENS6_9allocatorIcEEEEEEbRKT_PNS6_13basic_ostreamIcSD_EE, symObjAddr: 0x42D04, symBinAddr: 0x10004545C, symSize: 0x2B0 }
  - { offset: 0x1C262, size: 0x8, addend: 0x0, symName: __ZNKSt3__18equal_toIvEclB8ne180100IRKNS_12basic_stringIcNS_11char_traitsIcEENS_9allocatorIcEEEERKPKcEEDTeqclsr3stdE7forwardIT_Efp_Eclsr3stdE7forwardIT0_Efp0_EEOSF_OSG_, symObjAddr: 0x42FB4, symBinAddr: 0x10004570C, symSize: 0x110 }
  - { offset: 0x1C2B8, size: 0x8, addend: 0x0, symName: __ZN7testing8internal14ComparisonBaseINS0_9EqMatcherIPKcEES4_NSt3__18equal_toIvEEE6UnwrapIS4_EERKT_SD_, symObjAddr: 0x430C4, symBinAddr: 0x10004581C, symSize: 0x60 }
  - { offset: 0x1C2E5, size: 0x8, addend: 0x0, symName: __ZNKSt3__112basic_stringIcNS_11char_traitsIcEENS_9allocatorIcEEEcvNS_17basic_string_viewIcS2_EEB8ne180100Ev, symObjAddr: 0x4359C, symBinAddr: 0x100045CF4, symSize: 0x20C }
  - { offset: 0x1C30C, size: 0x8, addend: 0x0, symName: __ZNSt3__117basic_string_viewIcNS_11char_traitsIcEEEC1B8ne180100EPKc, symObjAddr: 0x437A8, symBinAddr: 0x100045F00, symSize: 0x6C }
  - { offset: 0x1C345, size: 0x8, addend: 0x0, symName: __ZNKSt3__117basic_string_viewIcNS_11char_traitsIcEEE7compareES3_, symObjAddr: 0x43814, symBinAddr: 0x100045F6C, symSize: 0x3C8 }
  - { offset: 0x1C3A9, size: 0x8, addend: 0x0, symName: __ZNKSt3__16__lessIvvEclB8ne180100ImmEEbRKT_RKT0_, symObjAddr: 0x43F28, symBinAddr: 0x100046680, symSize: 0xD0 }
  - { offset: 0x1C3FD, size: 0x8, addend: 0x0, symName: __ZNSt3__117basic_string_viewIcNS_11char_traitsIcEEEC1B8ne180100EPKcm, symObjAddr: 0x43FF8, symBinAddr: 0x100046750, symSize: 0x74 }
  - { offset: 0x1C445, size: 0x8, addend: 0x0, symName: __ZNSt3__117basic_string_viewIcNS_11char_traitsIcEEEC2B8ne180100EPKcm, symObjAddr: 0x4406C, symBinAddr: 0x1000467C4, symSize: 0xF8 }
  - { offset: 0x1C48D, size: 0x8, addend: 0x0, symName: __ZNSt3__117basic_string_viewIcNS_11char_traitsIcEEEC2B8ne180100EPKc, symObjAddr: 0x44164, symBinAddr: 0x1000468BC, symSize: 0x108 }
  - { offset: 0x1C4C6, size: 0x8, addend: 0x0, symName: __ZNK7testing8internal14ComparisonBaseINS0_9EqMatcherIPKcEES4_NSt3__18equal_toIvEEE18DescribeNegationToEPNS6_13basic_ostreamIcNS6_11char_traitsIcEEEE, symObjAddr: 0x44290, symBinAddr: 0x1000469E8, symSize: 0x160 }
  - { offset: 0x1C4FB, size: 0x8, addend: 0x0, symName: __ZNK7testing8internal14ComparisonBaseINS0_9EqMatcherIPKcEES4_NSt3__18equal_toIvEEE10DescribeToEPNS6_13basic_ostreamIcNS6_11char_traitsIcEEEE, symObjAddr: 0x443F0, symBinAddr: 0x100046B48, symSize: 0x168 }
  - { offset: 0x1C530, size: 0x8, addend: 0x0, symName: __ZN7testing8internal9EqMatcherIPKcE11NegatedDescEv, symObjAddr: 0x44558, symBinAddr: 0x100046CB0, symSize: 0x14 }
  - { offset: 0x1C544, size: 0x8, addend: 0x0, symName: __ZN7testing8internal16UniversalPrinterIPKcE5PrintERKS3_PNSt3__113basic_ostreamIcNS7_11char_traitsIcEEEE, symObjAddr: 0x445D8, symBinAddr: 0x100046D30, symSize: 0x6C }
  - { offset: 0x1C577, size: 0x8, addend: 0x0, symName: __ZN7testing8internal9EqMatcherIPKcE4DescEv, symObjAddr: 0x44644, symBinAddr: 0x100046D9C, symSize: 0x14 }
  - { offset: 0x1C5C2, size: 0x8, addend: 0x0, symName: __ZNSt3__112__tuple_leafILm0EPKN7testing8internal11MatcherBaseIRKNS_12basic_stringIcNS_11char_traitsIcEENS_9allocatorIcEEEEEELb0EE3getB8ne180100Ev, symObjAddr: 0x44948, symBinAddr: 0x1000470A0, symSize: 0x8C }
  - { offset: 0x1C663, size: 0x8, addend: 0x0, symName: __ZNSt3__15tupleIJPKN7testing8internal11MatcherBaseIRKNS_12basic_stringIcNS_11char_traitsIcEENS_9allocatorIcEEEEEEPKNS2_9EqMatcherIPKcEEEEC1B8ne180100IJSE_SK_ETnNS_9enable_ifIXsr4_AndINS_17integral_constantIbXeqsZT_sZT_EEENSL_17_EnableUTypesCtorIJDpT_EEEEE5valueEiE4typeELi0EEEDpOSR_, symObjAddr: 0x449D4, symBinAddr: 0x10004712C, symSize: 0x74 }
  - { offset: 0x1C6C1, size: 0x8, addend: 0x0, symName: __ZNSt3__15tupleIJPKN7testing8internal11MatcherBaseIRKNS_12basic_stringIcNS_11char_traitsIcEENS_9allocatorIcEEEEEEPKNS2_9EqMatcherIPKcEEEEC2B8ne180100IJSE_SK_ETnNS_9enable_ifIXsr4_AndINS_17integral_constantIbXeqsZT_sZT_EEENSL_17_EnableUTypesCtorIJDpT_EEEEE5valueEiE4typeELi0EEEDpOSR_, symObjAddr: 0x44A48, symBinAddr: 0x1000471A0, symSize: 0xE4 }
  - { offset: 0x1C71F, size: 0x8, addend: 0x0, symName: __ZNSt3__112__tuple_implINS_15__tuple_indicesIJLm0ELm1EEEEJPKN7testing8internal11MatcherBaseIRKNS_12basic_stringIcNS_11char_traitsIcEENS_9allocatorIcEEEEEEPKNS4_9EqMatcherIPKcEEEEC1B8ne180100IJLm0ELm1EEJSG_SM_ETpTnmJEJEJSG_SM_EEENS1_IJXspT_EEEENS_13__tuple_typesIJDpT0_EEENS1_IJXspT1_EEEENSQ_IJDpT2_EEEDpOT3_, symObjAddr: 0x44B2C, symBinAddr: 0x100047284, symSize: 0x74 }
  - { offset: 0x1C7CF, size: 0x8, addend: 0x0, symName: __ZNSt3__112__tuple_implINS_15__tuple_indicesIJLm0ELm1EEEEJPKN7testing8internal11MatcherBaseIRKNS_12basic_stringIcNS_11char_traitsIcEENS_9allocatorIcEEEEEEPKNS4_9EqMatcherIPKcEEEEC2B8ne180100IJLm0ELm1EEJSG_SM_ETpTnmJEJEJSG_SM_EEENS1_IJXspT_EEEENS_13__tuple_typesIJDpT0_EEENS1_IJXspT1_EEEENSQ_IJDpT2_EEEDpOT3_, symObjAddr: 0x44BA0, symBinAddr: 0x1000472F8, symSize: 0x168 }
  - { offset: 0x1C87F, size: 0x8, addend: 0x0, symName: __ZNSt3__112__tuple_leafILm0EPKN7testing8internal11MatcherBaseIRKNS_12basic_stringIcNS_11char_traitsIcEENS_9allocatorIcEEEEEELb0EEC2B8ne180100ISE_vEEOT_, symObjAddr: 0x44D08, symBinAddr: 0x100047460, symSize: 0x124 }
  - { offset: 0x1C8C2, size: 0x8, addend: 0x0, symName: __ZNSt3__112__tuple_leafILm1EPKN7testing8internal9EqMatcherIPKcEELb0EEC2B8ne180100IS8_vEEOT_, symObjAddr: 0x44E2C, symBinAddr: 0x100047584, symSize: 0x124 }
  - { offset: 0x1C905, size: 0x8, addend: 0x0, symName: __ZN7testing8internal11MatcherBaseIRKNSt3__112basic_stringIcNS2_11char_traitsIcEENS2_9allocatorIcEEEEED2Ev, symObjAddr: 0x44F50, symBinAddr: 0x1000476A8, symSize: 0x158 }
  - { offset: 0x1C92F, size: 0x8, addend: 0x0, symName: __ZN7testing8internal11MatcherBaseIRKNSt3__112basic_stringIcNS2_11char_traitsIcEENS2_9allocatorIcEEEEE7DestroyEv, symObjAddr: 0x450A8, symBinAddr: 0x100047800, symSize: 0x4A8 }
  - { offset: 0x1C955, size: 0x8, addend: 0x0, symName: __ZNK7testing8internal11MatcherBaseIRKNSt3__112basic_stringIcNS2_11char_traitsIcEENS2_9allocatorIcEEEEE8IsSharedEv, symObjAddr: 0x45550, symBinAddr: 0x100047CA8, symSize: 0x29C }
  - { offset: 0x1C97B, size: 0x8, addend: 0x0, symName: __ZNK7testing8internal11MatcherBaseIRKNSt3__112basic_stringIcNS2_11char_traitsIcEENS2_9allocatorIcEEEEE15MatchAndExplainESA_PNS_19MatchResultListenerE, symObjAddr: 0x457EC, symBinAddr: 0x100047F44, symSize: 0x5FC }
  - { offset: 0x1C9C0, size: 0x8, addend: 0x0, symName: __ZN7testing8internal16UniversalPrinterINSt3__112basic_stringIcNS2_11char_traitsIcEENS2_9allocatorIcEEEEE5PrintERKS8_PNS2_13basic_ostreamIcS5_EE, symObjAddr: 0x45E88, symBinAddr: 0x1000485E0, symSize: 0x6C }
  - { offset: 0x1C9F3, size: 0x8, addend: 0x0, symName: __ZN7testing7MatcherIRKNSt3__112basic_stringIcNS1_11char_traitsIcEENS1_9allocatorIcEEEEED2Ev, symObjAddr: 0x45F58, symBinAddr: 0x1000486B0, symSize: 0x64 }
  - { offset: 0x1CA20, size: 0x8, addend: 0x0, symName: __ZNK7prqueueINSt3__112basic_stringIcNS0_11char_traitsIcEENS0_9allocatorIcEEEEE28findSmallestPriorityAndValueEPNS7_4NODEERiRS6_, symObjAddr: 0x45FBC, symBinAddr: 0x100048714, symSize: 0x63C }
  - { offset: 0x1CA70, size: 0x8, addend: 0x0, symName: __ZNK7testing8internal11MatcherBaseIRKPN7prqueueINSt3__112basic_stringIcNS3_11char_traitsIcEENS3_9allocatorIcEEEEE4NODEEE7MatchesESE_, symObjAddr: 0x46660, symBinAddr: 0x100048DB8, symSize: 0x368 }
  - { offset: 0x1CAB8, size: 0x8, addend: 0x0, symName: __ZNK7testing8internal11MatcherBaseIRKPN7prqueueINSt3__112basic_stringIcNS3_11char_traitsIcEENS3_9allocatorIcEEEEE4NODEEE10DescribeToEPNS3_13basic_ostreamIcS6_EE, symObjAddr: 0x469C8, symBinAddr: 0x100049120, symSize: 0x5C4 }
  - { offset: 0x1CAFD, size: 0x8, addend: 0x0, symName: __ZN7testing7MatcherIRKPN7prqueueINSt3__112basic_stringIcNS2_11char_traitsIcEENS2_9allocatorIcEEEEE4NODEEED1Ev, symObjAddr: 0x47C2C, symBinAddr: 0x10004A384, symSize: 0x6C }
  - { offset: 0x1CB29, size: 0x8, addend: 0x0, symName: __ZN7testing8internal15MatcherCastImplIRKPN7prqueueINSt3__112basic_stringIcNS3_11char_traitsIcEENS3_9allocatorIcEEEEE4NODEENS0_9NeMatcherIDnEEE4CastERKSG_, symObjAddr: 0x47D08, symBinAddr: 0x10004A460, symSize: 0x70 }
  - { offset: 0x1CB4D, size: 0x8, addend: 0x0, symName: __ZN7testing8internal15MatcherCastImplIRKPN7prqueueINSt3__112basic_stringIcNS3_11char_traitsIcEENS3_9allocatorIcEEEEE4NODEENS0_9NeMatcherIDnEEE8CastImplILb0EEENS_7MatcherISE_EERKSG_NS3_17integral_constantIbLb1EEENSN_IbXT_EEE, symObjAddr: 0x47D78, symBinAddr: 0x10004A4D0, symSize: 0x9C }
  - { offset: 0x1CB91, size: 0x8, addend: 0x0, symName: __ZN7testing7MatcherIRKPN7prqueueINSt3__112basic_stringIcNS2_11char_traitsIcEENS2_9allocatorIcEEEEE4NODEEEC1IRKNS_8internal9NeMatcherIDnEEvEEOT_, symObjAddr: 0x47E14, symBinAddr: 0x10004A56C, symSize: 0x6C }
  - { offset: 0x1CBD4, size: 0x8, addend: 0x0, symName: __ZN7testing7MatcherIRKPN7prqueueINSt3__112basic_stringIcNS2_11char_traitsIcEENS2_9allocatorIcEEEEE4NODEEEC2IRKNS_8internal9NeMatcherIDnEEvEEOT_, symObjAddr: 0x47E80, symBinAddr: 0x10004A5D8, symSize: 0x138 }
  - { offset: 0x1CC17, size: 0x8, addend: 0x0, symName: __ZN7testing8internal11MatcherBaseIRKPN7prqueueINSt3__112basic_stringIcNS3_11char_traitsIcEENS3_9allocatorIcEEEEE4NODEEEC2IRKNS0_9NeMatcherIDnEEvEEOT_, symObjAddr: 0x47FB8, symBinAddr: 0x10004A710, symSize: 0x22C }
  - { offset: 0x1CC5A, size: 0x8, addend: 0x0, symName: __ZN7testing7MatcherIRKPN7prqueueINSt3__112basic_stringIcNS2_11char_traitsIcEENS2_9allocatorIcEEEEE4NODEEED0Ev, symObjAddr: 0x481E4, symBinAddr: 0x10004A93C, symSize: 0x64 }
  - { offset: 0x1CC86, size: 0x8, addend: 0x0, symName: __ZNK7testing8internal11MatcherBaseIRKPN7prqueueINSt3__112basic_stringIcNS3_11char_traitsIcEENS3_9allocatorIcEEEEE4NODEEE18DescribeNegationToEPNS3_13basic_ostreamIcS6_EE, symObjAddr: 0x48248, symBinAddr: 0x10004A9A0, symSize: 0x5BC }
  - { offset: 0x1CCBC, size: 0x8, addend: 0x0, symName: __ZN7testing8internal11MatcherBaseIRKPN7prqueueINSt3__112basic_stringIcNS3_11char_traitsIcEENS3_9allocatorIcEEEEE4NODEEE4InitIRKNS0_9NeMatcherIDnEEEEvOT_, symObjAddr: 0x48804, symBinAddr: 0x10004AF5C, symSize: 0x1F8 }
  - { offset: 0x1CCFA, size: 0x8, addend: 0x0, symName: __ZN7testing8internal11MatcherBaseIRKPN7prqueueINSt3__112basic_stringIcNS3_11char_traitsIcEENS3_9allocatorIcEEEEE4NODEEED1Ev, symObjAddr: 0x489FC, symBinAddr: 0x10004B154, symSize: 0x64 }
  - { offset: 0x1CD24, size: 0x8, addend: 0x0, symName: __ZN7testing8internal11MatcherBaseIRKPN7prqueueINSt3__112basic_stringIcNS3_11char_traitsIcEENS3_9allocatorIcEEEEE4NODEEED0Ev, symObjAddr: 0x48A60, symBinAddr: 0x10004B1B8, symSize: 0x64 }
  - { offset: 0x1CD4E, size: 0x8, addend: 0x0, symName: __ZN7testing8internal11MatcherBaseIRKPN7prqueueINSt3__112basic_stringIcNS3_11char_traitsIcEENS3_9allocatorIcEEEEE4NODEEE11ValuePolicyINS0_9NeMatcherIDnEELb1EE4InitERSF_SI_, symObjAddr: 0x48B28, symBinAddr: 0x10004B280, symSize: 0x80 }
  - { offset: 0x1CD81, size: 0x8, addend: 0x0, symName: __ZN7testing8internal11MatcherBaseIRKPN7prqueueINSt3__112basic_stringIcNS3_11char_traitsIcEENS3_9allocatorIcEEEEE4NODEEE19MatchAndExplainImplINSF_11ValuePolicyINS0_9NeMatcherIDnEELb1EEEEEDTcldtclsrT_3Getfp_E15MatchAndExplainfp0_clptfp1_6streamEEERKSF_SE_PNS_19MatchResultListenerE, symObjAddr: 0x48BA8, symBinAddr: 0x10004B300, symSize: 0x1E8 }
  - { offset: 0x1CDCC, size: 0x8, addend: 0x0, symName: __ZN7testing8internal11MatcherBaseIRKPN7prqueueINSt3__112basic_stringIcNS3_11char_traitsIcEENS3_9allocatorIcEEEEE4NODEEE12DescribeImplINSF_11ValuePolicyINS0_9NeMatcherIDnEELb1EEEEEvRKSF_PNS3_13basic_ostreamIcS6_EEb, symObjAddr: 0x48D90, symBinAddr: 0x10004B4E8, symSize: 0x1B0 }
  - { offset: 0x1CE17, size: 0x8, addend: 0x0, symName: __ZN7testing8internal11MatcherBaseIRKPN7prqueueINSt3__112basic_stringIcNS3_11char_traitsIcEENS3_9allocatorIcEEEEE4NODEEE16GetDescriberImplINSF_11ValuePolicyINS0_9NeMatcherIDnEELb1EEEEEPKNS_25MatcherDescriberInterfaceERKSF_, symObjAddr: 0x48F40, symBinAddr: 0x10004B698, symSize: 0x324 }
  - { offset: 0x1CE45, size: 0x8, addend: 0x0, symName: __ZN7testing8internal11MatcherBaseIRKPN7prqueueINSt3__112basic_stringIcNS3_11char_traitsIcEENS3_9allocatorIcEEEEE4NODEEE11ValuePolicyINS0_9NeMatcherIDnEELb1EE3GetERKSF_, symObjAddr: 0x49264, symBinAddr: 0x10004B9BC, symSize: 0x64 }
  - { offset: 0x1CE78, size: 0x8, addend: 0x0, symName: __ZNK7testing8internal14ComparisonBaseINS0_9NeMatcherIDnEEDnNSt3__112not_equal_toIvEEE15MatchAndExplainIPN7prqueueINS4_12basic_stringIcNS4_11char_traitsIcEENS4_9allocatorIcEEEEE4NODEEEEbRKT_PNS4_13basic_ostreamIcSC_EE, symObjAddr: 0x492C8, symBinAddr: 0x10004BA20, symSize: 0x2B0 }
  - { offset: 0x1CEC4, size: 0x8, addend: 0x0, symName: __ZNKSt3__112not_equal_toIvEclB8ne180100IRKPN7prqueueINS_12basic_stringIcNS_11char_traitsIcEENS_9allocatorIcEEEEE4NODEERKDnEEDTneclsr3stdE7forwardIT_Efp_Eclsr3stdE7forwardIT0_Efp0_EEOSH_OSI_, symObjAddr: 0x49578, symBinAddr: 0x10004BCD0, symSize: 0xD8 }
  - { offset: 0x1CF51, size: 0x8, addend: 0x0, symName: __ZNSt3__112__tuple_leafILm0EPKN7testing8internal11MatcherBaseIRKPN7prqueueINS_12basic_stringIcNS_11char_traitsIcEENS_9allocatorIcEEEEE4NODEEEELb0EE3getB8ne180100Ev, symObjAddr: 0x49940, symBinAddr: 0x10004C098, symSize: 0x8C }
  - { offset: 0x1CFBA, size: 0x8, addend: 0x0, symName: __ZNSt3__15tupleIJPKN7testing8internal11MatcherBaseIRKPN7prqueueINS_12basic_stringIcNS_11char_traitsIcEENS_9allocatorIcEEEEE4NODEEEEPKNS2_9NeMatcherIDnEEEEC1B8ne180100IJSI_SM_ETnNS_9enable_ifIXsr4_AndINS_17integral_constantIbXeqsZT_sZT_EEENSN_17_EnableUTypesCtorIJDpT_EEEEE5valueEiE4typeELi0EEEDpOST_, symObjAddr: 0x499CC, symBinAddr: 0x10004C124, symSize: 0x74 }
  - { offset: 0x1D018, size: 0x8, addend: 0x0, symName: __ZNSt3__15tupleIJPKN7testing8internal11MatcherBaseIRKPN7prqueueINS_12basic_stringIcNS_11char_traitsIcEENS_9allocatorIcEEEEE4NODEEEEPKNS2_9NeMatcherIDnEEEEC2B8ne180100IJSI_SM_ETnNS_9enable_ifIXsr4_AndINS_17integral_constantIbXeqsZT_sZT_EEENSN_17_EnableUTypesCtorIJDpT_EEEEE5valueEiE4typeELi0EEEDpOST_, symObjAddr: 0x49A40, symBinAddr: 0x10004C198, symSize: 0xE4 }
  - { offset: 0x1D076, size: 0x8, addend: 0x0, symName: __ZNSt3__112__tuple_implINS_15__tuple_indicesIJLm0ELm1EEEEJPKN7testing8internal11MatcherBaseIRKPN7prqueueINS_12basic_stringIcNS_11char_traitsIcEENS_9allocatorIcEEEEE4NODEEEEPKNS4_9NeMatcherIDnEEEEC1B8ne180100IJLm0ELm1EEJSK_SO_ETpTnmJEJEJSK_SO_EEENS1_IJXspT_EEEENS_13__tuple_typesIJDpT0_EEENS1_IJXspT1_EEEENSS_IJDpT2_EEEDpOT3_, symObjAddr: 0x49B24, symBinAddr: 0x10004C27C, symSize: 0x74 }
  - { offset: 0x1D126, size: 0x8, addend: 0x0, symName: __ZNSt3__112__tuple_implINS_15__tuple_indicesIJLm0ELm1EEEEJPKN7testing8internal11MatcherBaseIRKPN7prqueueINS_12basic_stringIcNS_11char_traitsIcEENS_9allocatorIcEEEEE4NODEEEEPKNS4_9NeMatcherIDnEEEEC2B8ne180100IJLm0ELm1EEJSK_SO_ETpTnmJEJEJSK_SO_EEENS1_IJXspT_EEEENS_13__tuple_typesIJDpT0_EEENS1_IJXspT1_EEEENSS_IJDpT2_EEEDpOT3_, symObjAddr: 0x49B98, symBinAddr: 0x10004C2F0, symSize: 0x168 }
  - { offset: 0x1D1D6, size: 0x8, addend: 0x0, symName: __ZNSt3__112__tuple_leafILm0EPKN7testing8internal11MatcherBaseIRKPN7prqueueINS_12basic_stringIcNS_11char_traitsIcEENS_9allocatorIcEEEEE4NODEEEELb0EEC2B8ne180100ISI_vEEOT_, symObjAddr: 0x49D00, symBinAddr: 0x10004C458, symSize: 0x124 }
  - { offset: 0x1D219, size: 0x8, addend: 0x0, symName: __ZN7testing8internal11MatcherBaseIRKPN7prqueueINSt3__112basic_stringIcNS3_11char_traitsIcEENS3_9allocatorIcEEEEE4NODEEED2Ev, symObjAddr: 0x49E24, symBinAddr: 0x10004C57C, symSize: 0x158 }
  - { offset: 0x1D243, size: 0x8, addend: 0x0, symName: __ZN7testing8internal11MatcherBaseIRKPN7prqueueINSt3__112basic_stringIcNS3_11char_traitsIcEENS3_9allocatorIcEEEEE4NODEEE7DestroyEv, symObjAddr: 0x49F7C, symBinAddr: 0x10004C6D4, symSize: 0x4A8 }
  - { offset: 0x1D269, size: 0x8, addend: 0x0, symName: __ZNK7testing8internal11MatcherBaseIRKPN7prqueueINSt3__112basic_stringIcNS3_11char_traitsIcEENS3_9allocatorIcEEEEE4NODEEE8IsSharedEv, symObjAddr: 0x4A424, symBinAddr: 0x10004CB7C, symSize: 0x29C }
  - { offset: 0x1D28F, size: 0x8, addend: 0x0, symName: __ZNK7testing8internal11MatcherBaseIRKPN7prqueueINSt3__112basic_stringIcNS3_11char_traitsIcEENS3_9allocatorIcEEEEE4NODEEE15MatchAndExplainESE_PNS_19MatchResultListenerE, symObjAddr: 0x4A6C0, symBinAddr: 0x10004CE18, symSize: 0x5FC }
  - { offset: 0x1D2D4, size: 0x8, addend: 0x0, symName: __ZN7testing8internal16UniversalPrinterIPN7prqueueINSt3__112basic_stringIcNS3_11char_traitsIcEENS3_9allocatorIcEEEEE4NODEEE5PrintERKSC_PNS3_13basic_ostreamIcS6_EE, symObjAddr: 0x4AD5C, symBinAddr: 0x10004D4B4, symSize: 0x6C }
  - { offset: 0x1D307, size: 0x8, addend: 0x0, symName: __ZN7testing8internal14PointerPrinter10PrintValueIN7prqueueINSt3__112basic_stringIcNS4_11char_traitsIcEENS4_9allocatorIcEEEEE4NODEEEEvPT_PNS4_13basic_ostreamIcS7_EE, symObjAddr: 0x4AEA0, symBinAddr: 0x10004D5F8, symSize: 0x15C }
  - { offset: 0x1D341, size: 0x8, addend: 0x0, symName: __ZN7testing7MatcherIRKPN7prqueueINSt3__112basic_stringIcNS2_11char_traitsIcEENS2_9allocatorIcEEEEE4NODEEED2Ev, symObjAddr: 0x4AFFC, symBinAddr: 0x10004D754, symSize: 0x64 }
  - { offset: 0x1D36D, size: 0x8, addend: 0x0, symName: __ZNK7prqueueINSt3__112basic_stringIcNS0_11char_traitsIcEENS0_9allocatorIcEEEEE10copyHelperEPNS7_4NODEES9_, symObjAddr: 0x4B060, symBinAddr: 0x10004D7B8, symSize: 0x13A8 }
  - { offset: 0x1D3E1, size: 0x8, addend: 0x0, symName: __ZN7prqueueINSt3__112basic_stringIcNS0_11char_traitsIcEENS0_9allocatorIcEEEEEC2ERKS7_, symObjAddr: 0x4C408, symBinAddr: 0x10004EB60, symSize: 0x284 }
  - { offset: 0x1D41A, size: 0x8, addend: 0x0, symName: __ZN7testing8internal9EqMatcherIbEC1ERKb, symObjAddr: 0x4C68C, symBinAddr: 0x10004EDE4, symSize: 0x58 }
  - { offset: 0x1D453, size: 0x8, addend: 0x0, symName: __ZN7testing8internal9EqMatcherIbEC2ERKb, symObjAddr: 0x4C6E4, symBinAddr: 0x10004EE3C, symSize: 0x9C }
  - { offset: 0x1D48C, size: 0x8, addend: 0x0, symName: __ZN7testing8internal14ComparisonBaseINS0_9EqMatcherIbEEbNSt3__18equal_toIvEEEC2ERKb, symObjAddr: 0x4C780, symBinAddr: 0x10004EED8, symSize: 0x138 }
  - { offset: 0x1D4C5, size: 0x8, addend: 0x0, symName: __ZN7testing8internal29PredicateFormatterFromMatcherINS0_9EqMatcherIbEEEC1ES3_, symObjAddr: 0x4C8B8, symBinAddr: 0x10004F010, symSize: 0x60 }
  - { offset: 0x1D4FE, size: 0x8, addend: 0x0, symName: __ZN7testing8internal29PredicateFormatterFromMatcherINS0_9EqMatcherIbEEEC2ES3_, symObjAddr: 0x4C918, symBinAddr: 0x10004F070, symSize: 0x60 }
  - { offset: 0x1D537, size: 0x8, addend: 0x0, symName: __ZNK7prqueueINSt3__112basic_stringIcNS0_11char_traitsIcEENS0_9allocatorIcEEEEE9bothEqualEPNS7_4NODEES9_, symObjAddr: 0x4C978, symBinAddr: 0x10004F0D0, symSize: 0xCD0 }
  - { offset: 0x1D595, size: 0x8, addend: 0x0, symName: __ZNK7testing8internal11MatcherBaseIRKbE7MatchesES3_, symObjAddr: 0x4DA88, symBinAddr: 0x1000501E0, symSize: 0x354 }
  - { offset: 0x1D5DD, size: 0x8, addend: 0x0, symName: __ZNK7testing8internal11MatcherBaseIRKbE10DescribeToEPNSt3__113basic_ostreamIcNS5_11char_traitsIcEEEE, symObjAddr: 0x4DDDC, symBinAddr: 0x100050534, symSize: 0x5C4 }
  - { offset: 0x1D622, size: 0x8, addend: 0x0, symName: __ZN7testing7MatcherIRKbED1Ev, symObjAddr: 0x4F004, symBinAddr: 0x10005175C, symSize: 0x6C }
  - { offset: 0x1D64E, size: 0x8, addend: 0x0, symName: __ZN7testing8internal15MatcherCastImplIRKbNS0_9EqMatcherIbEEE4CastERKS5_, symObjAddr: 0x4F0CC, symBinAddr: 0x100051824, symSize: 0x5C }
  - { offset: 0x1D672, size: 0x8, addend: 0x0, symName: __ZN7testing8internal15MatcherCastImplIRKbNS0_9EqMatcherIbEEE8CastImplILb0EEENS_7MatcherIS3_EERKS5_NSt3__117integral_constantIbLb1EEENSD_IbXT_EEE, symObjAddr: 0x4F128, symBinAddr: 0x100051880, symSize: 0x88 }
  - { offset: 0x1D6B6, size: 0x8, addend: 0x0, symName: __ZN7testing7MatcherIRKbEC1IRKNS_8internal9EqMatcherIbEEvEEOT_, symObjAddr: 0x4F1B0, symBinAddr: 0x100051908, symSize: 0x6C }
  - { offset: 0x1D6F9, size: 0x8, addend: 0x0, symName: __ZN7testing7MatcherIRKbEC2IRKNS_8internal9EqMatcherIbEEvEEOT_, symObjAddr: 0x4F21C, symBinAddr: 0x100051974, symSize: 0x124 }
  - { offset: 0x1D73C, size: 0x8, addend: 0x0, symName: __ZN7testing8internal11MatcherBaseIRKbEC2IRKNS0_9EqMatcherIbEEvEEOT_, symObjAddr: 0x4F340, symBinAddr: 0x100051A98, symSize: 0x218 }
  - { offset: 0x1D77F, size: 0x8, addend: 0x0, symName: __ZN7testing7MatcherIRKbED0Ev, symObjAddr: 0x4F558, symBinAddr: 0x100051CB0, symSize: 0x64 }
  - { offset: 0x1D7AB, size: 0x8, addend: 0x0, symName: __ZNK7testing8internal11MatcherBaseIRKbE18DescribeNegationToEPNSt3__113basic_ostreamIcNS5_11char_traitsIcEEEE, symObjAddr: 0x4F5BC, symBinAddr: 0x100051D14, symSize: 0x5BC }
  - { offset: 0x1D7E1, size: 0x8, addend: 0x0, symName: __ZN7testing8internal11MatcherBaseIRKbE4InitIRKNS0_9EqMatcherIbEEEEvOT_, symObjAddr: 0x4FB78, symBinAddr: 0x1000522D0, symSize: 0x1FC }
  - { offset: 0x1D81F, size: 0x8, addend: 0x0, symName: __ZN7testing8internal11MatcherBaseIRKbED1Ev, symObjAddr: 0x4FD74, symBinAddr: 0x1000524CC, symSize: 0x64 }
  - { offset: 0x1D849, size: 0x8, addend: 0x0, symName: __ZN7testing8internal11MatcherBaseIRKbED0Ev, symObjAddr: 0x4FDD8, symBinAddr: 0x100052530, symSize: 0x64 }
  - { offset: 0x1D873, size: 0x8, addend: 0x0, symName: __ZN7testing8internal11MatcherBaseIRKbE11ValuePolicyINS0_9EqMatcherIbEELb1EE4InitERS4_S7_, symObjAddr: 0x4FEA0, symBinAddr: 0x1000525F8, symSize: 0x6C }
  - { offset: 0x1D8A6, size: 0x8, addend: 0x0, symName: __ZN7testing8internal11MatcherBaseIRKbE19MatchAndExplainImplINS4_11ValuePolicyINS0_9EqMatcherIbEELb1EEEEEDTcldtclsrT_3Getfp_E15MatchAndExplainfp0_clptfp1_6streamEEERKS4_S3_PNS_19MatchResultListenerE, symObjAddr: 0x4FF0C, symBinAddr: 0x100052664, symSize: 0x19C }
  - { offset: 0x1D8F1, size: 0x8, addend: 0x0, symName: __ZN7testing8internal11MatcherBaseIRKbE12DescribeImplINS4_11ValuePolicyINS0_9EqMatcherIbEELb1EEEEEvRKS4_PNSt3__113basic_ostreamIcNSC_11char_traitsIcEEEEb, symObjAddr: 0x500A8, symBinAddr: 0x100052800, symSize: 0x140 }
  - { offset: 0x1D93C, size: 0x8, addend: 0x0, symName: __ZN7testing8internal11MatcherBaseIRKbE16GetDescriberImplINS4_11ValuePolicyINS0_9EqMatcherIbEELb1EEEEEPKNS_25MatcherDescriberInterfaceERKS4_, symObjAddr: 0x501E8, symBinAddr: 0x100052940, symSize: 0x324 }
  - { offset: 0x1D96A, size: 0x8, addend: 0x0, symName: __ZN7testing8internal11MatcherBaseIRKbE11ValuePolicyINS0_9EqMatcherIbEELb1EE3GetERKS4_, symObjAddr: 0x5050C, symBinAddr: 0x100052C64, symSize: 0x50 }
  - { offset: 0x1D99D, size: 0x8, addend: 0x0, symName: __ZNK7testing8internal14ComparisonBaseINS0_9EqMatcherIbEEbNSt3__18equal_toIvEEE15MatchAndExplainIbEEbRKT_PNS4_13basic_ostreamIcNS4_11char_traitsIcEEEE, symObjAddr: 0x5055C, symBinAddr: 0x100052CB4, symSize: 0x260 }
  - { offset: 0x1D9E9, size: 0x8, addend: 0x0, symName: __ZNKSt3__18equal_toIvEclB8ne180100IRKbS4_EEDTeqclsr3stdE7forwardIT_Efp_Eclsr3stdE7forwardIT0_Efp0_EEOS5_OS6_, symObjAddr: 0x507BC, symBinAddr: 0x100052F14, symSize: 0x1B0 }
  - { offset: 0x1DA3F, size: 0x8, addend: 0x0, symName: __ZN7testing8internal14ComparisonBaseINS0_9EqMatcherIbEEbNSt3__18equal_toIvEEE6UnwrapIbEERKT_SB_, symObjAddr: 0x5096C, symBinAddr: 0x1000530C4, symSize: 0x44 }
  - { offset: 0x1DA6C, size: 0x8, addend: 0x0, symName: __ZNK7testing8internal14ComparisonBaseINS0_9EqMatcherIbEEbNSt3__18equal_toIvEEE18DescribeNegationToEPNS4_13basic_ostreamIcNS4_11char_traitsIcEEEE, symObjAddr: 0x509B0, symBinAddr: 0x100053108, symSize: 0x124 }
  - { offset: 0x1DAA1, size: 0x8, addend: 0x0, symName: __ZNK7testing8internal14ComparisonBaseINS0_9EqMatcherIbEEbNSt3__18equal_toIvEEE10DescribeToEPNS4_13basic_ostreamIcNS4_11char_traitsIcEEEE, symObjAddr: 0x50AD4, symBinAddr: 0x10005322C, symSize: 0x12C }
  - { offset: 0x1DAD6, size: 0x8, addend: 0x0, symName: __ZN7testing8internal9EqMatcherIbE11NegatedDescEv, symObjAddr: 0x50C00, symBinAddr: 0x100053358, symSize: 0x14 }
  - { offset: 0x1DAEA, size: 0x8, addend: 0x0, symName: __ZN7testing8internal16UniversalPrinterIbE5PrintERKbPNSt3__113basic_ostreamIcNS5_11char_traitsIcEEEE, symObjAddr: 0x50C6C, symBinAddr: 0x1000533C4, symSize: 0xB8 }
  - { offset: 0x1DB1D, size: 0x8, addend: 0x0, symName: __ZN7testing8internal9EqMatcherIbE4DescEv, symObjAddr: 0x50DD4, symBinAddr: 0x10005352C, symSize: 0x14 }
  - { offset: 0x1DB68, size: 0x8, addend: 0x0, symName: __ZNSt3__112__tuple_leafILm0EPKN7testing8internal11MatcherBaseIRKbEELb0EE3getB8ne180100Ev, symObjAddr: 0x510D8, symBinAddr: 0x100053830, symSize: 0x8C }
  - { offset: 0x1DC09, size: 0x8, addend: 0x0, symName: __ZNSt3__15tupleIJPKN7testing8internal11MatcherBaseIRKbEEPKNS2_9EqMatcherIbEEEEC1B8ne180100IJS8_SC_ETnNS_9enable_ifIXsr4_AndINS_17integral_constantIbXeqsZT_sZT_EEENSD_17_EnableUTypesCtorIJDpT_EEEEE5valueEiE4typeELi0EEEDpOSJ_, symObjAddr: 0x51164, symBinAddr: 0x1000538BC, symSize: 0x74 }
  - { offset: 0x1DC67, size: 0x8, addend: 0x0, symName: __ZNSt3__15tupleIJPKN7testing8internal11MatcherBaseIRKbEEPKNS2_9EqMatcherIbEEEEC2B8ne180100IJS8_SC_ETnNS_9enable_ifIXsr4_AndINS_17integral_constantIbXeqsZT_sZT_EEENSD_17_EnableUTypesCtorIJDpT_EEEEE5valueEiE4typeELi0EEEDpOSJ_, symObjAddr: 0x511D8, symBinAddr: 0x100053930, symSize: 0xE4 }
  - { offset: 0x1DCC5, size: 0x8, addend: 0x0, symName: __ZNSt3__112__tuple_implINS_15__tuple_indicesIJLm0ELm1EEEEJPKN7testing8internal11MatcherBaseIRKbEEPKNS4_9EqMatcherIbEEEEC1B8ne180100IJLm0ELm1EEJSA_SE_ETpTnmJEJEJSA_SE_EEENS1_IJXspT_EEEENS_13__tuple_typesIJDpT0_EEENS1_IJXspT1_EEEENSI_IJDpT2_EEEDpOT3_, symObjAddr: 0x512BC, symBinAddr: 0x100053A14, symSize: 0x74 }
  - { offset: 0x1DD75, size: 0x8, addend: 0x0, symName: __ZNSt3__112__tuple_implINS_15__tuple_indicesIJLm0ELm1EEEEJPKN7testing8internal11MatcherBaseIRKbEEPKNS4_9EqMatcherIbEEEEC2B8ne180100IJLm0ELm1EEJSA_SE_ETpTnmJEJEJSA_SE_EEENS1_IJXspT_EEEENS_13__tuple_typesIJDpT0_EEENS1_IJXspT1_EEEENSI_IJDpT2_EEEDpOT3_, symObjAddr: 0x51330, symBinAddr: 0x100053A88, symSize: 0x168 }
  - { offset: 0x1DE25, size: 0x8, addend: 0x0, symName: __ZNSt3__112__tuple_leafILm0EPKN7testing8internal11MatcherBaseIRKbEELb0EEC2B8ne180100IS8_vEEOT_, symObjAddr: 0x51498, symBinAddr: 0x100053BF0, symSize: 0x124 }
  - { offset: 0x1DE68, size: 0x8, addend: 0x0, symName: __ZNSt3__112__tuple_leafILm1EPKN7testing8internal9EqMatcherIbEELb0EEC2B8ne180100IS6_vEEOT_, symObjAddr: 0x515BC, symBinAddr: 0x100053D14, symSize: 0x124 }
  - { offset: 0x1DEAB, size: 0x8, addend: 0x0, symName: __ZN7testing8internal11MatcherBaseIRKbED2Ev, symObjAddr: 0x516E0, symBinAddr: 0x100053E38, symSize: 0x158 }
  - { offset: 0x1DED5, size: 0x8, addend: 0x0, symName: __ZN7testing8internal11MatcherBaseIRKbE7DestroyEv, symObjAddr: 0x51838, symBinAddr: 0x100053F90, symSize: 0x4A8 }
  - { offset: 0x1DEFB, size: 0x8, addend: 0x0, symName: __ZNK7testing8internal11MatcherBaseIRKbE8IsSharedEv, symObjAddr: 0x51CE0, symBinAddr: 0x100054438, symSize: 0x29C }
  - { offset: 0x1DF21, size: 0x8, addend: 0x0, symName: __ZNK7testing8internal11MatcherBaseIRKbE15MatchAndExplainES3_PNS_19MatchResultListenerE, symObjAddr: 0x51F7C, symBinAddr: 0x1000546D4, symSize: 0x5E8 }
  - { offset: 0x1DF66, size: 0x8, addend: 0x0, symName: __ZN7testing7MatcherIRKbED2Ev, symObjAddr: 0x52590, symBinAddr: 0x100054CE8, symSize: 0x64 }
...
